

Microchip MPLAB XC8 Assembler V2.31 build 20201012212115 
                                                                                               Fri Jan 15 10:05:05 2021

Microchip MPLAB XC8 C Compiler v2.31 (Free license) build 20201012212115 Og1 
     1                           	processor	16F877A
     2                           	pagewidth 120
     3                           	opt	flic
     4                           	psect	idataBANK0,global,class=CODE,delta=2,noexec
     5                           	psect	idataBANK1,global,class=CODE,delta=2,noexec
     6                           	psect	strings,global,class=STRING,delta=2,noexec
     7                           	psect	cinit,global,class=CODE,merge=1,delta=2
     8                           	psect	bssCOMMON,global,class=COMMON,space=1,delta=1,noexec
     9                           	psect	bssBANK0,global,class=BANK0,space=1,delta=1,noexec
    10                           	psect	dataBANK0,global,class=BANK0,space=1,delta=1,noexec
    11                           	psect	bssBANK1,global,class=BANK1,space=1,delta=1,noexec
    12                           	psect	dataBANK1,global,class=BANK1,space=1,delta=1,noexec
    13                           	psect	inittext,global,class=CODE,delta=2
    14                           	psect	clrtext,global,class=CODE,delta=2
    15                           	psect	cstackCOMMON,global,class=COMMON,space=1,delta=1,noexec
    16                           	psect	cstackBANK0,global,class=BANK0,space=1,delta=1,noexec
    17                           	psect	maintext,global,class=CODE,split=1,delta=2
    18                           	psect	text1,local,class=CODE,merge=1,delta=2
    19                           	psect	text2,local,class=CODE,merge=1,delta=2
    20                           	psect	text3,local,class=CODE,merge=1,delta=2
    21                           	psect	text4,local,class=CODE,merge=1,delta=2
    22                           	psect	text5,local,class=CODE,merge=1,delta=2
    23                           	psect	text6,local,class=CODE,merge=1,delta=2
    24                           	psect	text7,local,class=CODE,merge=1,delta=2
    25                           	psect	text8,local,class=CODE,merge=1,delta=2
    26                           	psect	text9,local,class=CODE,merge=1,delta=2
    27                           	psect	text10,local,class=CODE,merge=1,delta=2
    28                           	psect	text11,local,class=CODE,merge=1,delta=2,group=1
    29                           	psect	text12,local,class=CODE,merge=1,delta=2,group=1
    30                           	psect	text13,local,class=CODE,merge=1,delta=2,group=1
    31                           	psect	text14,local,class=CODE,merge=1,delta=2,group=1
    32                           	psect	text15,local,class=CODE,merge=1,delta=2,group=1
    33                           	psect	text16,local,class=CODE,merge=1,delta=2
    34                           	psect	text17,local,class=CODE,merge=1,delta=2,group=1
    35                           	psect	text18,local,class=CODE,merge=1,delta=2,group=1
    36                           	psect	text19,local,class=CODE,merge=1,delta=2,group=1
    37                           	psect	text20,local,class=CODE,merge=1,delta=2
    38                           	psect	intentry,global,class=CODE,delta=2
    39                           	psect	config,global,abs,ovrld,class=CONFIG,space=4,delta=2,noexec
    40                           	dabs	1,0x7E,2
    41  0000                     
    42                           ; Version 2.20
    43                           ; Generated 12/02/2020 GMT
    44                           ; 
    45                           ; Copyright © 2020, Microchip Technology Inc. and its subsidiaries ("Microchip")
    46                           ; All rights reserved.
    47                           ; 
    48                           ; This software is developed by Microchip Technology Inc. and its subsidiaries ("Microch
      +                          ip").
    49                           ; 
    50                           ; Redistribution and use in source and binary forms, with or without modification, are
    51                           ; permitted provided that the following conditions are met:
    52                           ; 
    53                           ;     1. Redistributions of source code must retain the above copyright notice, this lis
      +                          t of
    54                           ;        conditions and the following disclaimer.
    55                           ; 
    56                           ;     2. Redistributions in binary form must reproduce the above copyright notice, this 
      +                          list
    57                           ;        of conditions and the following disclaimer in the documentation and/or other
    58                           ;        materials provided with the distribution.
    59                           ; 
    60                           ;     3. Microchip's name may not be used to endorse or promote products derived from th
      +                          is
    61                           ;        software without specific prior written permission.
    62                           ; 
    63                           ; THIS SOFTWARE IS PROVIDED BY MICROCHIP "AS IS" AND ANY EXPRESS OR IMPLIED WARRANTIES,
    64                           ; INCLUDING, BUT NOT LIMITED TO, THE IMPLIED WARRANTIES OF MERCHANTABILITY AND FITNESS F
      +                          OR
    65                           ; PURPOSE ARE DISCLAIMED.  IN NO EVENT SHALL MICROCHIP BE LIABLE FOR ANY DIRECT, INDIREC
      +                          T,
    66                           ; INCIDENTAL, SPECIAL, EXEMPLARY, OR CONSEQUENTIAL DAMAGES (INCLUDING BUT NOT LIMITED TO
    67                           ; PROCUREMENT OF SUBSTITUTE GOODS OR SERVICES; LOSS OF USE, DATA OR PROFITS; OR BUSINESS
    68                           ; INTERRUPTION) HOWSOEVER CAUSED AND ON ANY THEORY OF LIABILITY, WHETHER IN CONTRACT, ST
      +                          RICT
    69                           ; LIABILITY, OR TORT (INCLUDING NEGLIGENCE OR OTHERWISE) ARISING IN ANY WAY OUT OF THE U
      +                          SE OF
    70                           ; THIS SOFTWARE, EVEN IF ADVISED OF THE POSSIBILITY OF SUCH DAMAGE.
    71                           ; 
    72                           ; 
    73                           ; Code-generator required, PIC16F877A Definitions
    74                           ; 
    75                           ; SFR Addresses
    76  0000                     	;# 
    77  0001                     	;# 
    78  0002                     	;# 
    79  0003                     	;# 
    80  0004                     	;# 
    81  0005                     	;# 
    82  0006                     	;# 
    83  0007                     	;# 
    84  0008                     	;# 
    85  0009                     	;# 
    86  000A                     	;# 
    87  000B                     	;# 
    88  000C                     	;# 
    89  000D                     	;# 
    90  000E                     	;# 
    91  000E                     	;# 
    92  000F                     	;# 
    93  0010                     	;# 
    94  0011                     	;# 
    95  0012                     	;# 
    96  0013                     	;# 
    97  0014                     	;# 
    98  0015                     	;# 
    99  0015                     	;# 
   100  0016                     	;# 
   101  0017                     	;# 
   102  0018                     	;# 
   103  0019                     	;# 
   104  001A                     	;# 
   105  001B                     	;# 
   106  001B                     	;# 
   107  001C                     	;# 
   108  001D                     	;# 
   109  001E                     	;# 
   110  001F                     	;# 
   111  0081                     	;# 
   112  0085                     	;# 
   113  0086                     	;# 
   114  0087                     	;# 
   115  0088                     	;# 
   116  0089                     	;# 
   117  008C                     	;# 
   118  008D                     	;# 
   119  008E                     	;# 
   120  0091                     	;# 
   121  0092                     	;# 
   122  0093                     	;# 
   123  0094                     	;# 
   124  0098                     	;# 
   125  0099                     	;# 
   126  009C                     	;# 
   127  009D                     	;# 
   128  009E                     	;# 
   129  009F                     	;# 
   130  010C                     	;# 
   131  010D                     	;# 
   132  010E                     	;# 
   133  010F                     	;# 
   134  018C                     	;# 
   135  018D                     	;# 
   136  0000                     	;# 
   137  0001                     	;# 
   138  0002                     	;# 
   139  0003                     	;# 
   140  0004                     	;# 
   141  0005                     	;# 
   142  0006                     	;# 
   143  0007                     	;# 
   144  0008                     	;# 
   145  0009                     	;# 
   146  000A                     	;# 
   147  000B                     	;# 
   148  000C                     	;# 
   149  000D                     	;# 
   150  000E                     	;# 
   151  000E                     	;# 
   152  000F                     	;# 
   153  0010                     	;# 
   154  0011                     	;# 
   155  0012                     	;# 
   156  0013                     	;# 
   157  0014                     	;# 
   158  0015                     	;# 
   159  0015                     	;# 
   160  0016                     	;# 
   161  0017                     	;# 
   162  0018                     	;# 
   163  0019                     	;# 
   164  001A                     	;# 
   165  001B                     	;# 
   166  001B                     	;# 
   167  001C                     	;# 
   168  001D                     	;# 
   169  001E                     	;# 
   170  001F                     	;# 
   171  0081                     	;# 
   172  0085                     	;# 
   173  0086                     	;# 
   174  0087                     	;# 
   175  0088                     	;# 
   176  0089                     	;# 
   177  008C                     	;# 
   178  008D                     	;# 
   179  008E                     	;# 
   180  0091                     	;# 
   181  0092                     	;# 
   182  0093                     	;# 
   183  0094                     	;# 
   184  0098                     	;# 
   185  0099                     	;# 
   186  009C                     	;# 
   187  009D                     	;# 
   188  009E                     	;# 
   189  009F                     	;# 
   190  010C                     	;# 
   191  010D                     	;# 
   192  010E                     	;# 
   193  010F                     	;# 
   194  018C                     	;# 
   195  018D                     	;# 
   196                           
   197                           	psect	idataBANK0
   198  0BC3                     __pidataBANK0:
   199                           
   200                           ;initializer for _setpointTemperature
   201  0BC3  341E               	retlw	30
   202  0BC4  3400               	retlw	0
   203                           
   204                           ;initializer for _change
   205  0BC5  3401               	retlw	1
   206                           
   207                           	psect	idataBANK1
   208  0C0A                     __pidataBANK1:
   209                           
   210                           ;initializer for main@F894
   211  0C0A  3453               	retlw	83
   212  0C0B  3465               	retlw	101
   213  0C0C  3474               	retlw	116
   214  0C0D  3420               	retlw	32
   215  0C0E  3450               	retlw	80
   216  0C0F  346F               	retlw	111
   217  0C10  3469               	retlw	105
   218  0C11  346E               	retlw	110
   219  0C12  3474               	retlw	116
   220  0C13  343A               	retlw	58
   221  0C14  3420               	retlw	32
   222  0C15  3400               	retlw	0
   223                           
   224                           ;initializer for main@F892
   225  0C16  3454               	retlw	84
   226  0C17  3465               	retlw	101
   227  0C18  346D               	retlw	109
   228  0C19  3470               	retlw	112
   229  0C1A  343A               	retlw	58
   230  0C1B  3420               	retlw	32
   231  0C1C  3400               	retlw	0
   232                           
   233                           ;initializer for _val_ADC
   234  0C1D  34FF               	retlw	255
   235  0C1E  34FF               	retlw	255
   236                           
   237                           ;initializer for _old_val
   238  0C1F  34FF               	retlw	255
   239  0C20  34FF               	retlw	255
   240                           
   241                           	psect	strings
   242  0800                     __pstrings:
   243  0800                     stringtab:
   244  0800                     __stringtab:
   245  0800                     stringcode:	
   246                           ;	String table - string pointers are 1 byte each
   247                           
   248  0800                     stringdir:
   249  0800  3008               	movlw	high stringdir
   250  0801  008A               	movwf	10
   251  0802  0804               	movf	4,w
   252  0803  0A84               	incf	4,f
   253  0804  0782               	addwf	2,f
   254  0805                     __stringbase:
   255  0805  3400               	retlw	0
   256  0806                     __end_of__stringtab:
   257  0806                     _rowMask:
   258  0806  3408               	retlw	8
   259  0807  3404               	retlw	4
   260  0808  3402               	retlw	2
   261  0809  3401               	retlw	1
   262  080A                     __end_of_rowMask:
   263  080A                     _colMask:
   264  080A  34FE               	retlw	254
   265  080B  34FD               	retlw	253
   266  080C  34FB               	retlw	251
   267  080D                     __end_of_colMask:
   268  0009                     _PORTE	set	9
   269  0001                     _TMR0	set	1
   270  000B                     _INTCON	set	11
   271  001E                     _ADRESH	set	30
   272  001F                     _ADCON0	set	31
   273  0006                     _PORTB	set	6
   274  0008                     _PORTD	set	8
   275  0005                     _PORTA	set	5
   276  0007                     _PORTC	set	7
   277  0081                     _OPTION_REG	set	129
   278  0086                     _TRISB	set	134
   279  0089                     _TRISE	set	137
   280  009F                     _ADCON1	set	159
   281  009E                     _ADRESL	set	158
   282  0085                     _TRISA	set	133
   283  0088                     _TRISD	set	136
   284  0087                     _TRISC	set	135
   285                           
   286                           	psect	cinit
   287  000F                     start_initialization:	
   288                           ; #config settings
   289                           
   290  000F                     __initialization:
   291                           
   292                           ; Initialize objects allocated to BANK1
   293  000F  1383               	bcf	3,7	;select IRP bank0
   294  0010  30B7               	movlw	low (__pdataBANK1+23)
   295  0011  00FD               	movwf	btemp+-1
   296  0012  300C               	movlw	high __pidataBANK1
   297  0013  00FE               	movwf	btemp
   298  0014  300A               	movlw	low __pidataBANK1
   299  0015  00FF               	movwf	btemp+1
   300  0016  30A0               	movlw	low __pdataBANK1
   301  0017  0084               	movwf	4
   302  0018  120A  158A  23FB  120A  118A  	fcall	init_ram0
   303                           
   304                           ; Initialize objects allocated to BANK0
   305  001D  3070               	movlw	low (__pdataBANK0+3)
   306  001E  00FD               	movwf	btemp+-1
   307  001F  300B               	movlw	high __pidataBANK0
   308  0020  00FE               	movwf	btemp
   309  0021  30C3               	movlw	low __pidataBANK0
   310  0022  00FF               	movwf	btemp+1
   311  0023  306D               	movlw	low __pdataBANK0
   312  0024  0084               	movwf	4
   313  0025  120A  158A  23FB  120A  118A  	fcall	init_ram0
   314                           
   315                           ; Clear objects allocated to BANK1
   316  002A  30B7               	movlw	low __pbssBANK1
   317  002B  0084               	movwf	4
   318  002C  30C6               	movlw	low (__pbssBANK1+15)
   319  002D  120A  158A  23CE  120A  118A  	fcall	clear_ram0
   320                           
   321                           ; Clear objects allocated to BANK0
   322  0032  3064               	movlw	low __pbssBANK0
   323  0033  0084               	movwf	4
   324  0034  306D               	movlw	low (__pbssBANK0+9)
   325  0035  120A  158A  23CE  120A  118A  	fcall	clear_ram0
   326                           
   327                           ; Clear objects allocated to COMMON
   328  003A  01FA               	clrf	__pbssCOMMON& (0+127)
   329  003B  01FB               	clrf	(__pbssCOMMON+1)& (0+127)
   330  003C                     end_of_initialization:	
   331                           ;End of C runtime variable initialization code
   332                           
   333  003C                     __end_of__initialization:
   334  003C  0183               	clrf	3
   335  003D  120A  118A  2D84   	ljmp	_main	;jump to C main() function
   336                           
   337                           	psect	bssCOMMON
   338  007A                     __pbssCOMMON:
   339  007A                     _rowScan:
   340  007A                     	ds	1
   341  007B                     _colScan:
   342  007B                     	ds	1
   343                           
   344                           	psect	bssBANK0
   345  0064                     __pbssBANK0:
   346  0064                     _temp1:
   347  0064                     	ds	2
   348  0066                     _t2:
   349  0066                     	ds	1
   350  0067                     _t1:
   351  0067                     	ds	1
   352  0068                     _c3:
   353  0068                     	ds	1
   354  0069                     _c2:
   355  0069                     	ds	1
   356  006A                     _c1:
   357  006A                     	ds	1
   358  006B                     _keyok:
   359  006B                     	ds	1
   360  006C                     _keypressed:
   361  006C                     	ds	1
   362                           
   363                           	psect	dataBANK0
   364  006D                     __pdataBANK0:
   365  006D                     _setpointTemperature:
   366  006D                     	ds	2
   367  006F                     _change:
   368  006F                     	ds	1
   369                           
   370                           	psect	bssBANK1
   371  00B7                     __pbssBANK1:
   372  00B7                     _temp:
   373  00B7                     	ds	4
   374  00BB                     _volt:
   375  00BB                     	ds	4
   376  00BF                     _delayBtn:
   377  00BF                     	ds	2
   378  00C1                     _pwm:
   379  00C1                     	ds	2
   380  00C3                     _count:
   381  00C3                     	ds	2
   382  00C5                     _c4:
   383  00C5                     	ds	1
   384                           
   385                           	psect	dataBANK1
   386  00A0                     __pdataBANK1:
   387  00A0                     main@F894:
   388  00A0                     	ds	12
   389  00AC                     main@F892:
   390  00AC                     	ds	7
   391  00B3                     _val_ADC:
   392  00B3                     	ds	2
   393  00B5                     _old_val:
   394  00B5                     	ds	2
   395                           
   396                           	psect	inittext
   397  0BF7                     init_fetch0:	
   398                           ;	Called with low address in FSR and high address in W
   399                           
   400  0BF7  087E               	movf	btemp,w
   401  0BF8  008A               	movwf	10
   402  0BF9  087F               	movf	btemp+1,w
   403  0BFA  0082               	movwf	2
   404  0BFB                     init_ram0:	
   405                           ;Called with:
   406                           ;	high address of idata address in btemp 
   407                           ;	low address of idata address in btemp+1 
   408                           ;	low address of data in FSR
   409                           ;	high address + 1 of data in btemp-1
   410                           
   411  0BFB  120A  158A  23F7  120A  158A  	fcall	init_fetch0
   412  0C00  0080               	movwf	0
   413  0C01  0A84               	incf	4,f
   414  0C02  0804               	movf	4,w
   415  0C03  067D               	xorwf	btemp+-1,w
   416  0C04  1903               	btfsc	3,2
   417  0C05  3400               	retlw	0
   418  0C06  0AFF               	incf	btemp+1,f
   419  0C07  1903               	btfsc	3,2
   420  0C08  0AFE               	incf	btemp,f
   421  0C09  2BFB               	goto	init_ram0
   422                           
   423                           	psect	clrtext
   424  0BCE                     clear_ram0:	
   425                           ;	Called with FSR containing the base address, and
   426                           ;	W with the last address+1
   427                           
   428  0BCE  0064               	clrwdt	;clear the watchdog before getting into this loop
   429  0BCF                     clrloop0:
   430  0BCF  0180               	clrf	0	;clear RAM location pointed to by FSR
   431  0BD0  0A84               	incf	4,f	;increment pointer
   432  0BD1  0604               	xorwf	4,w	;XOR with final address
   433  0BD2  1903               	btfsc	3,2	;have we reached the end yet?
   434  0BD3  3400               	retlw	0	;all done for this memory range, return
   435  0BD4  0604               	xorwf	4,w	;XOR again to restore value
   436  0BD5  2BCF               	goto	clrloop0	;do the next byte
   437                           
   438                           	psect	cstackCOMMON
   439  0070                     __pcstackCOMMON:
   440  0070                     ?_initPic:
   441  0070                     ?_init_ADC:	
   442                           ; 1 bytes @ 0x0
   443                           
   444  0070                     ?_initDisplayLCD:	
   445                           ; 1 bytes @ 0x0
   446                           
   447  0070                     ?_checkKeypad:	
   448                           ; 1 bytes @ 0x0
   449                           
   450  0070                     ?_sendCommand:	
   451                           ; 1 bytes @ 0x0
   452                           
   453  0070                     ?_write_string:	
   454                           ; 1 bytes @ 0x0
   455                           
   456  0070                     ?_write_char:	
   457                           ; 1 bytes @ 0x0
   458                           
   459  0070                     ?_sendData:	
   460                           ; 1 bytes @ 0x0
   461                           
   462  0070                     ?_main:	
   463                           ; 1 bytes @ 0x0
   464                           
   465  0070                     ?_ISR:	
   466                           ; 1 bytes @ 0x0
   467                           
   468  0070                     ??_ISR:	
   469                           ; 1 bytes @ 0x0
   470                           
   471                           
   472                           ; 1 bytes @ 0x0
   473  0070                     	ds	2
   474  0072                     ??_initPic:
   475  0072                     ??_init_ADC:	
   476                           ; 1 bytes @ 0x2
   477                           
   478  0072                     ??_checkKeypad:	
   479                           ; 1 bytes @ 0x2
   480                           
   481  0072                     ??_sendCommand:	
   482                           ; 1 bytes @ 0x2
   483                           
   484  0072                     ??_sendData:	
   485                           ; 1 bytes @ 0x2
   486                           
   487  0072                     ?_read_ADC:	
   488                           ; 1 bytes @ 0x2
   489                           
   490  0072                     ?__Umul8_16:	
   491                           ; 2 bytes @ 0x2
   492                           
   493  0072                     ?___wmul:	
   494                           ; 2 bytes @ 0x2
   495                           
   496  0072                     ?___awdiv:	
   497                           ; 2 bytes @ 0x2
   498                           
   499  0072                     ?___fldiv:	
   500                           ; 2 bytes @ 0x2
   501                           
   502  0072                     ?___xxtofl:	
   503                           ; 4 bytes @ 0x2
   504                           
   505  0072                     __Umul8_16@multiplicand:	
   506                           ; 4 bytes @ 0x2
   507                           
   508  0072                     ___wmul@multiplier:	
   509                           ; 1 bytes @ 0x2
   510                           
   511  0072                     ___awdiv@divisor:	
   512                           ; 2 bytes @ 0x2
   513                           
   514  0072                     ___fldiv@a:	
   515                           ; 2 bytes @ 0x2
   516                           
   517  0072                     ___xxtofl@val:	
   518                           ; 4 bytes @ 0x2
   519                           
   520                           
   521                           ; 4 bytes @ 0x2
   522  0072                     	ds	2
   523  0074                     ??_read_ADC:
   524  0074                     ??__Umul8_16:	
   525                           ; 1 bytes @ 0x4
   526                           
   527  0074                     sendCommand@cmd:	
   528                           ; 1 bytes @ 0x4
   529                           
   530  0074                     sendData@d:	
   531                           ; 1 bytes @ 0x4
   532                           
   533  0074                     ___wmul@multiplicand:	
   534                           ; 1 bytes @ 0x4
   535                           
   536  0074                     ___awdiv@dividend:	
   537                           ; 2 bytes @ 0x4
   538                           
   539                           
   540                           ; 2 bytes @ 0x4
   541  0074                     	ds	1
   542  0075                     ??_initDisplayLCD:
   543  0075                     ??_write_string:	
   544                           ; 1 bytes @ 0x5
   545                           
   546  0075                     ??_write_char:	
   547                           ; 1 bytes @ 0x5
   548                           
   549  0075                     read_ADC@ch:	
   550                           ; 1 bytes @ 0x5
   551                           
   552  0075                     write_char@c:	
   553                           ; 1 bytes @ 0x5
   554                           
   555                           
   556                           ; 1 bytes @ 0x5
   557  0075                     	ds	1
   558  0076                     ??___wmul:
   559  0076                     ??___awdiv:	
   560                           ; 1 bytes @ 0x6
   561                           
   562  0076                     ??___xxtofl:	
   563                           ; 1 bytes @ 0x6
   564                           
   565  0076                     write_string@i:	
   566                           ; 1 bytes @ 0x6
   567                           
   568  0076                     ___wmul@product:	
   569                           ; 2 bytes @ 0x6
   570                           
   571  0076                     ___fldiv@b:	
   572                           ; 2 bytes @ 0x6
   573                           
   574                           
   575                           ; 4 bytes @ 0x6
   576  0076                     	ds	1
   577  0077                     ??___awmod:
   578                           
   579                           ; 1 bytes @ 0x7
   580  0077                     	ds	1
   581  0078                     ??_manageTemperature:
   582  0078                     write_string@scritta:	
   583                           ; 1 bytes @ 0x8
   584                           
   585  0078                     ___awmod@counter:	
   586                           ; 1 bytes @ 0x8
   587                           
   588                           
   589                           ; 1 bytes @ 0x8
   590  0078                     	ds	1
   591  0079                     ___awmod@sign:
   592                           
   593                           ; 1 bytes @ 0x9
   594  0079                     	ds	1
   595  007A                     ??_getRealTemperature:
   596                           
   597                           	psect	cstackBANK0
   598  0020                     __pcstackBANK0:	
   599                           ; 1 bytes @ 0xA
   600                           
   601  0020                     ?_manageTemperature:
   602  0020                     ??___fldiv:	
   603                           ; 1 bytes @ 0x0
   604                           
   605  0020                     ___awdiv@counter:	
   606                           ; 1 bytes @ 0x0
   607                           
   608  0020                     ___xxtofl@sign:	
   609                           ; 1 bytes @ 0x0
   610                           
   611  0020                     manageTemperature@t1:	
   612                           ; 1 bytes @ 0x0
   613                           
   614  0020                     __Umul8_16@product:	
   615                           ; 2 bytes @ 0x0
   616                           
   617                           
   618                           ; 2 bytes @ 0x0
   619  0020                     	ds	1
   620  0021                     ___awdiv@sign:
   621  0021                     ___xxtofl@exp:	
   622                           ; 1 bytes @ 0x1
   623                           
   624                           
   625                           ; 1 bytes @ 0x1
   626  0021                     	ds	1
   627  0022                     manageTemperature@t2:
   628  0022                     ___awdiv@quotient:	
   629                           ; 2 bytes @ 0x2
   630                           
   631  0022                     __Umul8_16@word_mpld:	
   632                           ; 2 bytes @ 0x2
   633                           
   634  0022                     ___xxtofl@arg:	
   635                           ; 2 bytes @ 0x2
   636                           
   637                           
   638                           ; 4 bytes @ 0x2
   639  0022                     	ds	2
   640  0024                     ?___awmod:
   641  0024                     __Umul8_16@multiplier:	
   642                           ; 2 bytes @ 0x4
   643                           
   644  0024                     ___awmod@divisor:	
   645                           ; 1 bytes @ 0x4
   646                           
   647                           
   648                           ; 2 bytes @ 0x4
   649  0024                     	ds	1
   650  0025                     ___fldiv@rem:
   651                           
   652                           ; 4 bytes @ 0x5
   653  0025                     	ds	1
   654  0026                     ?___flmul:
   655  0026                     ___awmod@dividend:	
   656                           ; 4 bytes @ 0x6
   657                           
   658  0026                     ___flmul@b:	
   659                           ; 2 bytes @ 0x6
   660                           
   661                           
   662                           ; 4 bytes @ 0x6
   663  0026                     	ds	3
   664  0029                     ___fldiv@sign:
   665                           
   666                           ; 1 bytes @ 0x9
   667  0029                     	ds	1
   668  002A                     ___fldiv@new_exp:
   669  002A                     ___flmul@a:	
   670                           ; 2 bytes @ 0xA
   671                           
   672                           
   673                           ; 4 bytes @ 0xA
   674  002A                     	ds	2
   675  002C                     ___fldiv@grs:
   676                           
   677                           ; 4 bytes @ 0xC
   678  002C                     	ds	2
   679  002E                     ??___flmul:
   680                           
   681                           ; 1 bytes @ 0xE
   682  002E                     	ds	2
   683  0030                     ___fldiv@bexp:
   684                           
   685                           ; 1 bytes @ 0x10
   686  0030                     	ds	1
   687  0031                     ___fldiv@aexp:
   688                           
   689                           ; 1 bytes @ 0x11
   690  0031                     	ds	2
   691  0033                     ___flmul@sign:
   692                           
   693                           ; 1 bytes @ 0x13
   694  0033                     	ds	1
   695  0034                     ___flmul@aexp:
   696                           
   697                           ; 1 bytes @ 0x14
   698  0034                     	ds	1
   699  0035                     ___flmul@grs:
   700                           
   701                           ; 4 bytes @ 0x15
   702  0035                     	ds	4
   703  0039                     ___flmul@bexp:
   704                           
   705                           ; 1 bytes @ 0x19
   706  0039                     	ds	1
   707  003A                     ___flmul@prod:
   708                           
   709                           ; 4 bytes @ 0x1A
   710  003A                     	ds	4
   711  003E                     ___flmul@temp:
   712                           
   713                           ; 2 bytes @ 0x1E
   714  003E                     	ds	2
   715  0040                     ?___fltol:
   716  0040                     ___fltol@f1:	
   717                           ; 4 bytes @ 0x20
   718                           
   719                           
   720                           ; 4 bytes @ 0x20
   721  0040                     	ds	4
   722  0044                     ??___fltol:
   723                           
   724                           ; 1 bytes @ 0x24
   725  0044                     	ds	5
   726  0049                     ___fltol@sign1:
   727                           
   728                           ; 1 bytes @ 0x29
   729  0049                     	ds	1
   730  004A                     ___fltol@exp1:
   731                           
   732                           ; 1 bytes @ 0x2A
   733  004A                     	ds	1
   734  004B                     ?_getRealTemperature:
   735                           
   736                           ; 2 bytes @ 0x2B
   737  004B                     	ds	2
   738  004D                     ??_main:
   739                           
   740                           ; 1 bytes @ 0x2D
   741  004D                     	ds	4
   742  0051                     main@setPointString:
   743                           
   744                           ; 12 bytes @ 0x31
   745  0051                     	ds	12
   746  005D                     main@tempString:
   747                           
   748                           ; 7 bytes @ 0x3D
   749  005D                     	ds	7
   750                           
   751                           	psect	maintext
   752  0584                     __pmaintext:	
   753 ;;
   754 ;;Main: autosize = 0, tempsize = 4, incstack = 0, save=0
   755 ;;
   756 ;; *************** function _main *****************
   757 ;; Defined at:
   758 ;;		line 64 in file "main.c"
   759 ;; Parameters:    Size  Location     Type
   760 ;;		None
   761 ;; Auto vars:     Size  Location     Type
   762 ;;  setPointStri   12   49[BANK0 ] unsigned char [12]
   763 ;;  tempString      7   61[BANK0 ] unsigned char [7]
   764 ;; Return value:  Size  Location     Type
   765 ;;                  1    wreg      void 
   766 ;; Registers used:
   767 ;;		wreg, fsr0l, fsr0h, status,2, status,0, btemp+1, pclath, cstack
   768 ;; Tracked objects:
   769 ;;		On entry : B00/0
   770 ;;		On exit  : 0/0
   771 ;;		Unchanged: 0/0
   772 ;; Data sizes:     COMMON   BANK0   BANK1   BANK3   BANK2
   773 ;;      Params:         0       0       0       0       0
   774 ;;      Locals:         0      19       0       0       0
   775 ;;      Temps:          0       4       0       0       0
   776 ;;      Totals:         0      23       0       0       0
   777 ;;Total ram usage:       23 bytes
   778 ;; Hardware stack levels required when called:    4
   779 ;; This function calls:
   780 ;;		___awdiv
   781 ;;		___awmod
   782 ;;		___wmul
   783 ;;		_checkKeypad
   784 ;;		_getRealTemperature
   785 ;;		_initDisplayLCD
   786 ;;		_initPic
   787 ;;		_init_ADC
   788 ;;		_manageTemperature
   789 ;;		_sendCommand
   790 ;;		_write_char
   791 ;;		_write_string
   792 ;; This function is called by:
   793 ;;		Startup code after reset
   794 ;; This function uses a non-reentrant model
   795 ;;
   796                           
   797                           
   798                           ;psect for function _main
   799  0584                     _main:
   800  0584                     l2399:	
   801                           ;incstack = 0
   802                           ; Regs used in _main: [wreg-fsr0h+status,2+status,0+btemp+1+pclath+cstack]
   803                           
   804                           
   805                           ;main.c: 66:     initPic();
   806  0584  120A  158A  23D6  120A  118A  	fcall	_initPic
   807                           
   808                           ;main.c: 67:     init_ADC();
   809  0589  120A  158A  23E5  120A  118A  	fcall	_init_ADC
   810                           
   811                           ;main.c: 68:     initDisplayLCD();
   812  058E  120A  158A  252C  120A  118A  	fcall	_initDisplayLCD
   813  0593                     l2401:
   814                           
   815                           ;main.c: 70:     {;main.c: 71:         if(count > 100)
   816  0593  1683               	bsf	3,5	;RP0=1, select bank1
   817  0594  1303               	bcf	3,6	;RP1=0, select bank1
   818  0595  0844               	movf	(_count+1)^(0+128),w
   819  0596  3A80               	xorlw	128
   820  0597  00FF               	movwf	btemp+1
   821  0598  3080               	movlw	128
   822  0599  027F               	subwf	btemp+1,w
   823  059A  1D03               	skipz
   824  059B  2D9E               	goto	u3355
   825  059C  3065               	movlw	101
   826  059D  0243               	subwf	_count^(0+128),w
   827  059E                     u3355:
   828  059E  1C03               	skipc
   829  059F  2DA1               	goto	u3351
   830  05A0  2DA2               	goto	u3350
   831  05A1                     u3351:
   832  05A1  2DAB               	goto	l2407
   833  05A2                     u3350:
   834  05A2                     l2403:
   835                           
   836                           ;main.c: 72:         {;main.c: 73:             checkKeypad();
   837  05A2  120A  158A  26C0  120A  118A  	fcall	_checkKeypad
   838  05A7                     l2405:
   839                           
   840                           ;main.c: 74:             count = 0;
   841  05A7  1683               	bsf	3,5	;RP0=1, select bank1
   842  05A8  1303               	bcf	3,6	;RP1=0, select bank1
   843  05A9  01C3               	clrf	_count^(0+128)
   844  05AA  01C4               	clrf	(_count+1)^(0+128)
   845  05AB                     l2407:
   846                           
   847                           ;main.c: 76:         temp1 = getRealTemperature();
   848  05AB  120A  158A  2756  120A  118A  	fcall	_getRealTemperature
   849  05B0  1283               	bcf	3,5	;RP0=0, select bank0
   850  05B1  1303               	bcf	3,6	;RP1=0, select bank0
   851  05B2  084C               	movf	?_getRealTemperature+1,w
   852  05B3  00E5               	movwf	_temp1+1
   853  05B4  084B               	movf	?_getRealTemperature,w
   854  05B5  00E4               	movwf	_temp1
   855  05B6                     l2409:
   856                           
   857                           ;main.c: 77:         manageTemperature((temp1),setpointTemperature * 100);
   858  05B6  0865               	movf	_temp1+1,w
   859  05B7  00A1               	movwf	manageTemperature@t1+1
   860  05B8  0864               	movf	_temp1,w
   861  05B9  00A0               	movwf	manageTemperature@t1
   862  05BA  086E               	movf	_setpointTemperature+1,w
   863  05BB  00F3               	movwf	___wmul@multiplier+1
   864  05BC  086D               	movf	_setpointTemperature,w
   865  05BD  00F2               	movwf	___wmul@multiplier
   866  05BE  3064               	movlw	100
   867  05BF  00F4               	movwf	___wmul@multiplicand
   868  05C0  3000               	movlw	0
   869  05C1  00F5               	movwf	___wmul@multiplicand+1
   870  05C2  120A  158A  2463  120A  118A  	fcall	___wmul
   871  05C7  0873               	movf	?___wmul+1,w
   872  05C8  1283               	bcf	3,5	;RP0=0, select bank0
   873  05C9  1303               	bcf	3,6	;RP1=0, select bank0
   874  05CA  00A3               	movwf	manageTemperature@t2+1
   875  05CB  0872               	movf	?___wmul,w
   876  05CC  00A2               	movwf	manageTemperature@t2
   877  05CD  120A  158A  2421  120A  118A  	fcall	_manageTemperature
   878  05D2                     l2411:
   879                           
   880                           ;main.c: 78:         if((int)(temp1/100) == setpointTemperature && change)
   881  05D2  3064               	movlw	100
   882  05D3  00F2               	movwf	___awdiv@divisor
   883  05D4  3000               	movlw	0
   884  05D5  00F3               	movwf	___awdiv@divisor+1
   885  05D6  1283               	bcf	3,5	;RP0=0, select bank0
   886  05D7  1303               	bcf	3,6	;RP1=0, select bank0
   887  05D8  0865               	movf	_temp1+1,w
   888  05D9  00F5               	movwf	___awdiv@dividend+1
   889  05DA  0864               	movf	_temp1,w
   890  05DB  00F4               	movwf	___awdiv@dividend
   891  05DC  120A  158A  25DB  120A  118A  	fcall	___awdiv
   892  05E1  1283               	bcf	3,5	;RP0=0, select bank0
   893  05E2  1303               	bcf	3,6	;RP1=0, select bank0
   894  05E3  086E               	movf	_setpointTemperature+1,w
   895  05E4  0673               	xorwf	?___awdiv+1,w
   896  05E5  1D03               	skipz
   897  05E6  2DE9               	goto	u3365
   898  05E7  086D               	movf	_setpointTemperature,w
   899  05E8  0672               	xorwf	?___awdiv,w
   900  05E9                     u3365:
   901  05E9  1D03               	skipz
   902  05EA  2DEC               	goto	u3361
   903  05EB  2DED               	goto	u3360
   904  05EC                     u3361:
   905  05EC  2D93               	goto	l2401
   906  05ED                     u3360:
   907  05ED                     l2413:
   908  05ED  086F               	movf	_change,w
   909  05EE  1903               	btfsc	3,2
   910  05EF  2DF1               	goto	u3371
   911  05F0  2DF2               	goto	u3370
   912  05F1                     u3371:
   913  05F1  2D93               	goto	l2401
   914  05F2                     u3370:
   915  05F2                     l2415:
   916                           
   917                           ;main.c: 79:         {;main.c: 80:             c1 = ((temp1/1000)%10) + '0';
   918  05F2  300A               	movlw	10
   919  05F3  00A4               	movwf	___awmod@divisor
   920  05F4  3000               	movlw	0
   921  05F5  00A5               	movwf	___awmod@divisor+1
   922  05F6  30E8               	movlw	232
   923  05F7  00F2               	movwf	___awdiv@divisor
   924  05F8  3003               	movlw	3
   925  05F9  00F3               	movwf	___awdiv@divisor+1
   926  05FA  0865               	movf	_temp1+1,w
   927  05FB  00F5               	movwf	___awdiv@dividend+1
   928  05FC  0864               	movf	_temp1,w
   929  05FD  00F4               	movwf	___awdiv@dividend
   930  05FE  120A  158A  25DB  120A  118A  	fcall	___awdiv
   931  0603  0873               	movf	?___awdiv+1,w
   932  0604  1283               	bcf	3,5	;RP0=0, select bank0
   933  0605  1303               	bcf	3,6	;RP1=0, select bank0
   934  0606  00A7               	movwf	___awmod@dividend+1
   935  0607  0872               	movf	?___awdiv,w
   936  0608  00A6               	movwf	___awmod@dividend
   937  0609  120A  158A  2580  120A  118A  	fcall	___awmod
   938  060E  1283               	bcf	3,5	;RP0=0, select bank0
   939  060F  1303               	bcf	3,6	;RP1=0, select bank0
   940  0610  0824               	movf	?___awmod,w
   941  0611  3E30               	addlw	48
   942  0612  00CD               	movwf	??_main
   943  0613  084D               	movf	??_main,w
   944  0614  00EA               	movwf	_c1
   945                           
   946                           ;main.c: 81:             c2 = ((temp1/100)%10) + '0';
   947  0615  300A               	movlw	10
   948  0616  00A4               	movwf	___awmod@divisor
   949  0617  3000               	movlw	0
   950  0618  00A5               	movwf	___awmod@divisor+1
   951  0619  3064               	movlw	100
   952  061A  00F2               	movwf	___awdiv@divisor
   953  061B  3000               	movlw	0
   954  061C  00F3               	movwf	___awdiv@divisor+1
   955  061D  0865               	movf	_temp1+1,w
   956  061E  00F5               	movwf	___awdiv@dividend+1
   957  061F  0864               	movf	_temp1,w
   958  0620  00F4               	movwf	___awdiv@dividend
   959  0621  120A  158A  25DB  120A  118A  	fcall	___awdiv
   960  0626  0873               	movf	?___awdiv+1,w
   961  0627  1283               	bcf	3,5	;RP0=0, select bank0
   962  0628  1303               	bcf	3,6	;RP1=0, select bank0
   963  0629  00A7               	movwf	___awmod@dividend+1
   964  062A  0872               	movf	?___awdiv,w
   965  062B  00A6               	movwf	___awmod@dividend
   966  062C  120A  158A  2580  120A  118A  	fcall	___awmod
   967  0631  1283               	bcf	3,5	;RP0=0, select bank0
   968  0632  1303               	bcf	3,6	;RP1=0, select bank0
   969  0633  0824               	movf	?___awmod,w
   970  0634  3E30               	addlw	48
   971  0635  00CD               	movwf	??_main
   972  0636  084D               	movf	??_main,w
   973  0637  00E9               	movwf	_c2
   974                           
   975                           ;main.c: 82:             c3 = ((temp1/10)%10) + '0';
   976  0638  300A               	movlw	10
   977  0639  00A4               	movwf	___awmod@divisor
   978  063A  3000               	movlw	0
   979  063B  00A5               	movwf	___awmod@divisor+1
   980  063C  300A               	movlw	10
   981  063D  00F2               	movwf	___awdiv@divisor
   982  063E  3000               	movlw	0
   983  063F  00F3               	movwf	___awdiv@divisor+1
   984  0640  0865               	movf	_temp1+1,w
   985  0641  00F5               	movwf	___awdiv@dividend+1
   986  0642  0864               	movf	_temp1,w
   987  0643  00F4               	movwf	___awdiv@dividend
   988  0644  120A  158A  25DB  120A  118A  	fcall	___awdiv
   989  0649  0873               	movf	?___awdiv+1,w
   990  064A  1283               	bcf	3,5	;RP0=0, select bank0
   991  064B  1303               	bcf	3,6	;RP1=0, select bank0
   992  064C  00A7               	movwf	___awmod@dividend+1
   993  064D  0872               	movf	?___awdiv,w
   994  064E  00A6               	movwf	___awmod@dividend
   995  064F  120A  158A  2580  120A  118A  	fcall	___awmod
   996  0654  1283               	bcf	3,5	;RP0=0, select bank0
   997  0655  1303               	bcf	3,6	;RP1=0, select bank0
   998  0656  0824               	movf	?___awmod,w
   999  0657  3E30               	addlw	48
  1000  0658  00CD               	movwf	??_main
  1001  0659  084D               	movf	??_main,w
  1002  065A  00E8               	movwf	_c3
  1003                           
  1004                           ;main.c: 83:             c4 = ((temp1/1)%10) + '0';
  1005  065B  300A               	movlw	10
  1006  065C  00A4               	movwf	___awmod@divisor
  1007  065D  3000               	movlw	0
  1008  065E  00A5               	movwf	___awmod@divisor+1
  1009  065F  0865               	movf	_temp1+1,w
  1010  0660  00A7               	movwf	___awmod@dividend+1
  1011  0661  0864               	movf	_temp1,w
  1012  0662  00A6               	movwf	___awmod@dividend
  1013  0663  120A  158A  2580  120A  118A  	fcall	___awmod
  1014  0668  1283               	bcf	3,5	;RP0=0, select bank0
  1015  0669  1303               	bcf	3,6	;RP1=0, select bank0
  1016  066A  0824               	movf	?___awmod,w
  1017  066B  3E30               	addlw	48
  1018  066C  00CD               	movwf	??_main
  1019  066D  084D               	movf	??_main,w
  1020  066E  1683               	bsf	3,5	;RP0=1, select bank1
  1021  066F  1303               	bcf	3,6	;RP1=0, select bank1
  1022  0670  00C5               	movwf	_c4^(0+128)
  1023                           
  1024                           ;main.c: 84:             sendCommand(0x01);
  1025  0671  3001               	movlw	1
  1026  0672  120A  158A  2488  120A  118A  	fcall	_sendCommand
  1027  0677                     l2417:
  1028                           
  1029                           ;main.c: 85:             char tempString[] = "Temp: ";
  1030  0677  305D               	movlw	main@tempString& (0+255)
  1031  0678  0084               	movwf	4
  1032  0679  30AC               	movlw	low main@F892
  1033  067A  1283               	bcf	3,5	;RP0=0, select bank0
  1034  067B  1303               	bcf	3,6	;RP1=0, select bank0
  1035  067C  00CD               	movwf	??_main
  1036  067D  0804               	movf	4,w
  1037  067E  00CE               	movwf	??_main+1
  1038  067F  3007               	movlw	7
  1039  0680  00CF               	movwf	??_main+2
  1040  0681                     u3380:
  1041  0681  084D               	movf	??_main,w
  1042  0682  0084               	movwf	4
  1043  0683  1383               	bcf	3,7	;select IRP bank1
  1044  0684  0800               	movf	0,w
  1045  0685  00D0               	movwf	??_main+3
  1046  0686  0ACD               	incf	??_main,f
  1047  0687  084E               	movf	??_main+1,w
  1048  0688  0084               	movwf	4
  1049  0689  0850               	movf	??_main+3,w
  1050  068A  0080               	movwf	0
  1051  068B  0ACE               	incf	??_main+1,f
  1052  068C  0BCF               	decfsz	??_main+2,f
  1053  068D  2E81               	goto	u3380
  1054  068E                     l2419:
  1055                           
  1056                           ;main.c: 86:             write_string(tempString);
  1057  068E  305D               	movlw	(low (main@tempString| 0))& (0+255)
  1058  068F  120A  158A  2442  120A  118A  	fcall	_write_string
  1059  0694                     l2421:
  1060                           
  1061                           ;main.c: 87:             write_char(c1);
  1062  0694  1283               	bcf	3,5	;RP0=0, select bank0
  1063  0695  1303               	bcf	3,6	;RP1=0, select bank0
  1064  0696  086A               	movf	_c1,w
  1065  0697  120A  158A  23C6  120A  118A  	fcall	_write_char
  1066  069C                     l2423:
  1067                           
  1068                           ;main.c: 88:             write_char(c2);
  1069  069C  1283               	bcf	3,5	;RP0=0, select bank0
  1070  069D  1303               	bcf	3,6	;RP1=0, select bank0
  1071  069E  0869               	movf	_c2,w
  1072  069F  120A  158A  23C6  120A  118A  	fcall	_write_char
  1073  06A4                     l2425:
  1074                           
  1075                           ;main.c: 92:             write_char(0xDF);
  1076  06A4  30DF               	movlw	223
  1077  06A5  120A  158A  23C6  120A  118A  	fcall	_write_char
  1078  06AA                     l2427:
  1079                           
  1080                           ;main.c: 93:             write_char('C');
  1081  06AA  3043               	movlw	67
  1082  06AB  120A  158A  23C6  120A  118A  	fcall	_write_char
  1083  06B0                     l2429:
  1084                           
  1085                           ;main.c: 95:             sendCommand(0xC0);
  1086  06B0  30C0               	movlw	192
  1087  06B1  120A  158A  2488  120A  118A  	fcall	_sendCommand
  1088  06B6                     l2431:
  1089                           
  1090                           ;main.c: 96:             char setPointString[] = "Set Point: ";
  1091  06B6  3051               	movlw	main@setPointString& (0+255)
  1092  06B7  0084               	movwf	4
  1093  06B8  30A0               	movlw	low main@F894
  1094  06B9  1283               	bcf	3,5	;RP0=0, select bank0
  1095  06BA  1303               	bcf	3,6	;RP1=0, select bank0
  1096  06BB  00CD               	movwf	??_main
  1097  06BC  0804               	movf	4,w
  1098  06BD  00CE               	movwf	??_main+1
  1099  06BE  300C               	movlw	12
  1100  06BF  00CF               	movwf	??_main+2
  1101  06C0                     u3390:
  1102  06C0  084D               	movf	??_main,w
  1103  06C1  0084               	movwf	4
  1104  06C2  1383               	bcf	3,7	;select IRP bank1
  1105  06C3  0800               	movf	0,w
  1106  06C4  00D0               	movwf	??_main+3
  1107  06C5  0ACD               	incf	??_main,f
  1108  06C6  084E               	movf	??_main+1,w
  1109  06C7  0084               	movwf	4
  1110  06C8  0850               	movf	??_main+3,w
  1111  06C9  0080               	movwf	0
  1112  06CA  0ACE               	incf	??_main+1,f
  1113  06CB  0BCF               	decfsz	??_main+2,f
  1114  06CC  2EC0               	goto	u3390
  1115  06CD                     l2433:
  1116                           
  1117                           ;main.c: 97:             t1 = setpointTemperature/10 + '0';
  1118  06CD  300A               	movlw	10
  1119  06CE  00F2               	movwf	___awdiv@divisor
  1120  06CF  3000               	movlw	0
  1121  06D0  00F3               	movwf	___awdiv@divisor+1
  1122  06D1  086E               	movf	_setpointTemperature+1,w
  1123  06D2  00F5               	movwf	___awdiv@dividend+1
  1124  06D3  086D               	movf	_setpointTemperature,w
  1125  06D4  00F4               	movwf	___awdiv@dividend
  1126  06D5  120A  158A  25DB  120A  118A  	fcall	___awdiv
  1127  06DA  0872               	movf	?___awdiv,w
  1128  06DB  3E30               	addlw	48
  1129  06DC  1283               	bcf	3,5	;RP0=0, select bank0
  1130  06DD  1303               	bcf	3,6	;RP1=0, select bank0
  1131  06DE  00CD               	movwf	??_main
  1132  06DF  084D               	movf	??_main,w
  1133  06E0  00E7               	movwf	_t1
  1134  06E1                     l2435:
  1135                           
  1136                           ;main.c: 98:             t2 = setpointTemperature%10 + '0';
  1137  06E1  300A               	movlw	10
  1138  06E2  00A4               	movwf	___awmod@divisor
  1139  06E3  3000               	movlw	0
  1140  06E4  00A5               	movwf	___awmod@divisor+1
  1141  06E5  086E               	movf	_setpointTemperature+1,w
  1142  06E6  00A7               	movwf	___awmod@dividend+1
  1143  06E7  086D               	movf	_setpointTemperature,w
  1144  06E8  00A6               	movwf	___awmod@dividend
  1145  06E9  120A  158A  2580  120A  118A  	fcall	___awmod
  1146  06EE  1283               	bcf	3,5	;RP0=0, select bank0
  1147  06EF  1303               	bcf	3,6	;RP1=0, select bank0
  1148  06F0  0824               	movf	?___awmod,w
  1149  06F1  3E30               	addlw	48
  1150  06F2  00CD               	movwf	??_main
  1151  06F3  084D               	movf	??_main,w
  1152  06F4  00E6               	movwf	_t2
  1153                           
  1154                           ;main.c: 99:             write_string(setPointString);
  1155  06F5  3051               	movlw	(low (main@setPointString| 0))& (0+255)
  1156  06F6  120A  158A  2442  120A  118A  	fcall	_write_string
  1157  06FB                     l2437:
  1158                           
  1159                           ;main.c: 100:             write_char(t1);
  1160  06FB  1283               	bcf	3,5	;RP0=0, select bank0
  1161  06FC  1303               	bcf	3,6	;RP1=0, select bank0
  1162  06FD  0867               	movf	_t1,w
  1163  06FE  120A  158A  23C6  120A  118A  	fcall	_write_char
  1164  0703                     l2439:
  1165                           
  1166                           ;main.c: 101:             write_char(t2);
  1167  0703  1283               	bcf	3,5	;RP0=0, select bank0
  1168  0704  1303               	bcf	3,6	;RP1=0, select bank0
  1169  0705  0866               	movf	_t2,w
  1170  0706  120A  158A  23C6  120A  118A  	fcall	_write_char
  1171  070B                     l2441:
  1172                           
  1173                           ;main.c: 102:             write_char(0xDF);
  1174  070B  30DF               	movlw	223
  1175  070C  120A  158A  23C6  120A  118A  	fcall	_write_char
  1176  0711                     l2443:
  1177                           
  1178                           ;main.c: 103:             write_char('C');
  1179  0711  3043               	movlw	67
  1180  0712  120A  158A  23C6  120A  118A  	fcall	_write_char
  1181  0717                     l2445:
  1182                           
  1183                           ;main.c: 105:             change = 0;
  1184  0717  1283               	bcf	3,5	;RP0=0, select bank0
  1185  0718  1303               	bcf	3,6	;RP1=0, select bank0
  1186  0719  01EF               	clrf	_change
  1187  071A  2D93               	goto	l2401
  1188  071B  120A  118A  280C   	ljmp	start
  1189  071E                     __end_of_main:
  1190                           
  1191                           	psect	text1
  1192  0C42                     __ptext1:	
  1193 ;; *************** function _write_string *****************
  1194 ;; Defined at:
  1195 ;;		line 173 in file "main.c"
  1196 ;; Parameters:    Size  Location     Type
  1197 ;;  scritta         1    wreg     PTR unsigned char 
  1198 ;;		 -> main@setPointString(12), main@tempString(7), 
  1199 ;; Auto vars:     Size  Location     Type
  1200 ;;  scritta         1    8[COMMON] PTR unsigned char 
  1201 ;;		 -> main@setPointString(12), main@tempString(7), 
  1202 ;;  i               2    6[COMMON] int 
  1203 ;; Return value:  Size  Location     Type
  1204 ;;                  1    wreg      void 
  1205 ;; Registers used:
  1206 ;;		wreg, fsr0l, fsr0h, status,2, status,0, pclath, cstack
  1207 ;; Tracked objects:
  1208 ;;		On entry : 0/0
  1209 ;;		On exit  : 0/0
  1210 ;;		Unchanged: 0/0
  1211 ;; Data sizes:     COMMON   BANK0   BANK1   BANK3   BANK2
  1212 ;;      Params:         0       0       0       0       0
  1213 ;;      Locals:         3       0       0       0       0
  1214 ;;      Temps:          1       0       0       0       0
  1215 ;;      Totals:         4       0       0       0       0
  1216 ;;Total ram usage:        4 bytes
  1217 ;; Hardware stack levels used:    1
  1218 ;; Hardware stack levels required when called:    2
  1219 ;; This function calls:
  1220 ;;		_sendData
  1221 ;; This function is called by:
  1222 ;;		_main
  1223 ;; This function uses a non-reentrant model
  1224 ;;
  1225                           
  1226                           
  1227                           ;psect for function _write_string
  1228  0C42                     _write_string:
  1229                           
  1230                           ;incstack = 0
  1231                           ; Regs used in _write_string: [wreg-fsr0h+status,2+status,0+pclath+cstack]
  1232                           ;write_string@scritta stored from wreg
  1233  0C42  00F8               	movwf	write_string@scritta
  1234  0C43                     l1977:
  1235                           
  1236                           ;main.c: 173: void write_string(char scritta[]);main.c: 174: {;main.c: 175:     int i = 
      +                          0;
  1237  0C43  01F6               	clrf	write_string@i
  1238  0C44  01F7               	clrf	write_string@i+1
  1239                           
  1240                           ;main.c: 176:     while(scritta[i] != '\0')
  1241  0C45  2C57               	goto	l1983
  1242  0C46                     l1979:
  1243                           
  1244                           ;main.c: 177:     {;main.c: 178:         sendData(scritta[i]);
  1245  0C46  0876               	movf	write_string@i,w
  1246  0C47  0778               	addwf	write_string@scritta,w
  1247  0C48  00F5               	movwf	??_write_string
  1248  0C49  0875               	movf	??_write_string,w
  1249  0C4A  0084               	movwf	4
  1250  0C4B  0800               	movf	0,w
  1251  0C4C  120A  158A  24B0  120A  158A  	fcall	_sendData
  1252  0C51                     l1981:
  1253                           
  1254                           ;main.c: 179:         i++;
  1255  0C51  3001               	movlw	1
  1256  0C52  07F6               	addwf	write_string@i,f
  1257  0C53  1803               	skipnc
  1258  0C54  0AF7               	incf	write_string@i+1,f
  1259  0C55  3000               	movlw	0
  1260  0C56  07F7               	addwf	write_string@i+1,f
  1261  0C57                     l1983:
  1262                           
  1263                           ;main.c: 176:     while(scritta[i] != '\0')
  1264  0C57  0876               	movf	write_string@i,w
  1265  0C58  0778               	addwf	write_string@scritta,w
  1266  0C59  00F5               	movwf	??_write_string
  1267  0C5A  0875               	movf	??_write_string,w
  1268  0C5B  0084               	movwf	4
  1269  0C5C  1383               	bcf	3,7	;select IRP bank0
  1270  0C5D  0800               	movf	0,w
  1271  0C5E  1D03               	btfss	3,2
  1272  0C5F  2C61               	goto	u2441
  1273  0C60  2C62               	goto	u2440
  1274  0C61                     u2441:
  1275  0C61  2C46               	goto	l1979
  1276  0C62                     u2440:
  1277  0C62                     l150:
  1278  0C62  0008               	return
  1279  0C63                     __end_of_write_string:
  1280                           
  1281                           	psect	text2
  1282  0BC6                     __ptext2:	
  1283 ;; *************** function _write_char *****************
  1284 ;; Defined at:
  1285 ;;		line 182 in file "main.c"
  1286 ;; Parameters:    Size  Location     Type
  1287 ;;  c               1    wreg     unsigned char 
  1288 ;; Auto vars:     Size  Location     Type
  1289 ;;  c               1    5[COMMON] unsigned char 
  1290 ;; Return value:  Size  Location     Type
  1291 ;;                  1    wreg      void 
  1292 ;; Registers used:
  1293 ;;		wreg, status,2, status,0, pclath, cstack
  1294 ;; Tracked objects:
  1295 ;;		On entry : 0/0
  1296 ;;		On exit  : 0/0
  1297 ;;		Unchanged: 0/0
  1298 ;; Data sizes:     COMMON   BANK0   BANK1   BANK3   BANK2
  1299 ;;      Params:         0       0       0       0       0
  1300 ;;      Locals:         1       0       0       0       0
  1301 ;;      Temps:          0       0       0       0       0
  1302 ;;      Totals:         1       0       0       0       0
  1303 ;;Total ram usage:        1 bytes
  1304 ;; Hardware stack levels used:    1
  1305 ;; Hardware stack levels required when called:    2
  1306 ;; This function calls:
  1307 ;;		_sendData
  1308 ;; This function is called by:
  1309 ;;		_main
  1310 ;; This function uses a non-reentrant model
  1311 ;;
  1312                           
  1313                           
  1314                           ;psect for function _write_char
  1315  0BC6                     _write_char:
  1316                           
  1317                           ;incstack = 0
  1318                           ; Regs used in _write_char: [wreg+status,2+status,0+pclath+cstack]
  1319                           ;write_char@c stored from wreg
  1320  0BC6  00F5               	movwf	write_char@c
  1321  0BC7                     l1985:
  1322                           
  1323                           ;main.c: 182: void write_char(char c);main.c: 183: {;main.c: 184:     sendData(c);
  1324  0BC7  0875               	movf	write_char@c,w
  1325  0BC8  120A  158A  24B0  120A  158A  	fcall	_sendData
  1326  0BCD                     l153:
  1327  0BCD  0008               	return
  1328  0BCE                     __end_of_write_char:
  1329                           
  1330                           	psect	text3
  1331  0CB0                     __ptext3:	
  1332 ;; *************** function _sendData *****************
  1333 ;; Defined at:
  1334 ;;		line 234 in file "main.c"
  1335 ;; Parameters:    Size  Location     Type
  1336 ;;  d               1    wreg     unsigned char 
  1337 ;; Auto vars:     Size  Location     Type
  1338 ;;  d               1    4[COMMON] unsigned char 
  1339 ;; Return value:  Size  Location     Type
  1340 ;;                  1    wreg      void 
  1341 ;; Registers used:
  1342 ;;		wreg, status,2
  1343 ;; Tracked objects:
  1344 ;;		On entry : 0/0
  1345 ;;		On exit  : 0/0
  1346 ;;		Unchanged: 0/0
  1347 ;; Data sizes:     COMMON   BANK0   BANK1   BANK3   BANK2
  1348 ;;      Params:         0       0       0       0       0
  1349 ;;      Locals:         1       0       0       0       0
  1350 ;;      Temps:          2       0       0       0       0
  1351 ;;      Totals:         3       0       0       0       0
  1352 ;;Total ram usage:        3 bytes
  1353 ;; Hardware stack levels used:    1
  1354 ;; Hardware stack levels required when called:    1
  1355 ;; This function calls:
  1356 ;;		Nothing
  1357 ;; This function is called by:
  1358 ;;		_write_string
  1359 ;;		_write_char
  1360 ;; This function uses a non-reentrant model
  1361 ;;
  1362                           
  1363                           
  1364                           ;psect for function _sendData
  1365  0CB0                     _sendData:
  1366                           
  1367                           ;incstack = 0
  1368                           ; Regs used in _sendData: [wreg+status,2]
  1369                           ;sendData@d stored from wreg
  1370  0CB0  00F4               	movwf	sendData@d
  1371  0CB1                     l1493:
  1372                           
  1373                           ;main.c: 234: void sendData(char d);main.c: 235: {;main.c: 236:      PORTE = PORTE | 0x0
      +                          2;
  1374  0CB1  1283               	bcf	3,5	;RP0=0, select bank0
  1375  0CB2  1303               	bcf	3,6	;RP1=0, select bank0
  1376  0CB3  0809               	movf	9,w	;volatile
  1377  0CB4  3802               	iorlw	2
  1378  0CB5  0089               	movwf	9	;volatile
  1379  0CB6                     l1495:
  1380                           
  1381                           ;main.c: 237:      PORTD = d;
  1382  0CB6  0874               	movf	sendData@d,w
  1383  0CB7  0088               	movwf	8	;volatile
  1384  0CB8                     l1497:
  1385                           
  1386                           ;main.c: 238:      PORTE = PORTE | 0x04;
  1387  0CB8  0809               	movf	9,w	;volatile
  1388  0CB9  3804               	iorlw	4
  1389  0CBA  0089               	movwf	9	;volatile
  1390                           
  1391                           ;main.c: 239:     _delay((unsigned long)((3)*(32000000/4000.0)));
  1392  0CBB  3020               	movlw	32
  1393  0CBC  00F3               	movwf	??_sendData+1
  1394  0CBD  3029               	movlw	41
  1395  0CBE  00F2               	movwf	??_sendData
  1396  0CBF                     u3407:
  1397  0CBF  0BF2               	decfsz	??_sendData,f
  1398  0CC0  2CBF               	goto	u3407
  1399  0CC1  0BF3               	decfsz	??_sendData+1,f
  1400  0CC2  2CBF               	goto	u3407
  1401  0CC3  2CC4               	nop2
  1402  0CC4                     l1499:
  1403                           
  1404                           ;main.c: 240:     PORTE = PORTE & ~0x02;
  1405  0CC4  1283               	bcf	3,5	;RP0=0, select bank0
  1406  0CC5  1303               	bcf	3,6	;RP1=0, select bank0
  1407  0CC6  0809               	movf	9,w	;volatile
  1408  0CC7  39FD               	andlw	253
  1409  0CC8  0089               	movwf	9	;volatile
  1410  0CC9                     l1501:
  1411                           
  1412                           ;main.c: 241:     _delay((unsigned long)((3)*(32000000/4000.0)));
  1413  0CC9  3020               	movlw	32
  1414  0CCA  00F3               	movwf	??_sendData+1
  1415  0CCB  3029               	movlw	41
  1416  0CCC  00F2               	movwf	??_sendData
  1417  0CCD                     u3417:
  1418  0CCD  0BF2               	decfsz	??_sendData,f
  1419  0CCE  2CCD               	goto	u3417
  1420  0CCF  0BF3               	decfsz	??_sendData+1,f
  1421  0CD0  2CCD               	goto	u3417
  1422  0CD1  2CD2               	nop2
  1423                           
  1424                           ;main.c: 242:     PORTE = PORTE | 0x02;
  1425  0CD2  1283               	bcf	3,5	;RP0=0, select bank0
  1426  0CD3  1303               	bcf	3,6	;RP1=0, select bank0
  1427  0CD4  0809               	movf	9,w	;volatile
  1428  0CD5  3802               	iorlw	2
  1429  0CD6  0089               	movwf	9	;volatile
  1430  0CD7                     l168:
  1431  0CD7  0008               	return
  1432  0CD8                     __end_of_sendData:
  1433                           
  1434                           	psect	text4
  1435  0C21                     __ptext4:	
  1436 ;; *************** function _manageTemperature *****************
  1437 ;; Defined at:
  1438 ;;		line 119 in file "main.c"
  1439 ;; Parameters:    Size  Location     Type
  1440 ;;  t1              2    0[BANK0 ] int 
  1441 ;;  t2              2    2[BANK0 ] int 
  1442 ;; Auto vars:     Size  Location     Type
  1443 ;;		None
  1444 ;; Return value:  Size  Location     Type
  1445 ;;                  1    wreg      void 
  1446 ;; Registers used:
  1447 ;;		wreg, status,2
  1448 ;; Tracked objects:
  1449 ;;		On entry : 0/0
  1450 ;;		On exit  : 0/0
  1451 ;;		Unchanged: 0/0
  1452 ;; Data sizes:     COMMON   BANK0   BANK1   BANK3   BANK2
  1453 ;;      Params:         0       4       0       0       0
  1454 ;;      Locals:         0       0       0       0       0
  1455 ;;      Temps:          1       0       0       0       0
  1456 ;;      Totals:         1       4       0       0       0
  1457 ;;Total ram usage:        5 bytes
  1458 ;; Hardware stack levels used:    1
  1459 ;; Hardware stack levels required when called:    1
  1460 ;; This function calls:
  1461 ;;		Nothing
  1462 ;; This function is called by:
  1463 ;;		_main
  1464 ;; This function uses a non-reentrant model
  1465 ;;
  1466                           
  1467                           
  1468                           ;psect for function _manageTemperature
  1469  0C21                     _manageTemperature:
  1470  0C21                     l2309:	
  1471                           ;incstack = 0
  1472                           ; Regs used in _manageTemperature: [wreg+status,2]
  1473                           
  1474                           
  1475                           ;main.c: 119: void manageTemperature(int t1, int t2);main.c: 120: {;main.c: 121:     TRI
      +                          SC = TRISC & ~0x20;
  1476  0C21  1683               	bsf	3,5	;RP0=1, select bank1
  1477  0C22  1303               	bcf	3,6	;RP1=0, select bank1
  1478  0C23  0807               	movf	7,w	;volatile
  1479  0C24  39DF               	andlw	223
  1480  0C25  0087               	movwf	7	;volatile
  1481  0C26                     l2311:
  1482                           
  1483                           ;main.c: 122:     if(t1 > t2)
  1484  0C26  1283               	bcf	3,5	;RP0=0, select bank0
  1485  0C27  1303               	bcf	3,6	;RP1=0, select bank0
  1486  0C28  0823               	movf	manageTemperature@t2+1,w
  1487  0C29  3A80               	xorlw	128
  1488  0C2A  00F8               	movwf	??_manageTemperature
  1489  0C2B  0821               	movf	manageTemperature@t1+1,w
  1490  0C2C  3A80               	xorlw	128
  1491  0C2D  0278               	subwf	??_manageTemperature,w
  1492  0C2E  1D03               	skipz
  1493  0C2F  2C32               	goto	u3155
  1494  0C30  0820               	movf	manageTemperature@t1,w
  1495  0C31  0222               	subwf	manageTemperature@t2,w
  1496  0C32                     u3155:
  1497  0C32  1803               	skipnc
  1498  0C33  2C35               	goto	u3151
  1499  0C34  2C36               	goto	u3150
  1500  0C35                     u3151:
  1501  0C35  2C3C               	goto	l2315
  1502  0C36                     u3150:
  1503  0C36                     l2313:
  1504                           
  1505                           ;main.c: 123:     {;main.c: 124:         PORTC = PORTC & ~0x20;
  1506  0C36  1283               	bcf	3,5	;RP0=0, select bank0
  1507  0C37  1303               	bcf	3,6	;RP1=0, select bank0
  1508  0C38  0807               	movf	7,w	;volatile
  1509  0C39  39DF               	andlw	223
  1510  0C3A  0087               	movwf	7	;volatile
  1511                           
  1512                           ;main.c: 125:     }else{ PORTC = PORTC | 0x20;}
  1513  0C3B  2C41               	goto	l124
  1514  0C3C                     l2315:
  1515  0C3C  1283               	bcf	3,5	;RP0=0, select bank0
  1516  0C3D  1303               	bcf	3,6	;RP1=0, select bank0
  1517  0C3E  0807               	movf	7,w	;volatile
  1518  0C3F  3820               	iorlw	32
  1519  0C40  0087               	movwf	7	;volatile
  1520  0C41                     l124:
  1521  0C41  0008               	return
  1522  0C42                     __end_of_manageTemperature:
  1523                           
  1524                           	psect	text5
  1525  0BE5                     __ptext5:	
  1526 ;; *************** function _init_ADC *****************
  1527 ;; Defined at:
  1528 ;;		line 186 in file "main.c"
  1529 ;; Parameters:    Size  Location     Type
  1530 ;;		None
  1531 ;; Auto vars:     Size  Location     Type
  1532 ;;		None
  1533 ;; Return value:  Size  Location     Type
  1534 ;;                  1    wreg      void 
  1535 ;; Registers used:
  1536 ;;		wreg, status,2
  1537 ;; Tracked objects:
  1538 ;;		On entry : 0/0
  1539 ;;		On exit  : 0/0
  1540 ;;		Unchanged: 0/0
  1541 ;; Data sizes:     COMMON   BANK0   BANK1   BANK3   BANK2
  1542 ;;      Params:         0       0       0       0       0
  1543 ;;      Locals:         0       0       0       0       0
  1544 ;;      Temps:          1       0       0       0       0
  1545 ;;      Totals:         1       0       0       0       0
  1546 ;;Total ram usage:        1 bytes
  1547 ;; Hardware stack levels used:    1
  1548 ;; Hardware stack levels required when called:    1
  1549 ;; This function calls:
  1550 ;;		Nothing
  1551 ;; This function is called by:
  1552 ;;		_main
  1553 ;; This function uses a non-reentrant model
  1554 ;;
  1555                           
  1556                           
  1557                           ;psect for function _init_ADC
  1558  0BE5                     _init_ADC:
  1559  0BE5                     l1873:	
  1560                           ;incstack = 0
  1561                           ; Regs used in _init_ADC: [wreg+status,2]
  1562                           
  1563                           
  1564                           ;main.c: 188:     TRISA = TRISA | 0x04;
  1565  0BE5  1683               	bsf	3,5	;RP0=1, select bank1
  1566  0BE6  1303               	bcf	3,6	;RP1=0, select bank1
  1567  0BE7  0805               	movf	5,w	;volatile
  1568  0BE8  3804               	iorlw	4
  1569  0BE9  0085               	movwf	5	;volatile
  1570  0BEA                     l1875:
  1571                           
  1572                           ;main.c: 189:     ADCON0 = 0x91;
  1573  0BEA  3091               	movlw	145
  1574  0BEB  1283               	bcf	3,5	;RP0=0, select bank0
  1575  0BEC  1303               	bcf	3,6	;RP1=0, select bank0
  1576  0BED  009F               	movwf	31	;volatile
  1577  0BEE                     l1877:
  1578                           
  1579                           ;main.c: 190:     ADCON1 = 0x8A;
  1580  0BEE  308A               	movlw	138
  1581  0BEF  1683               	bsf	3,5	;RP0=1, select bank1
  1582  0BF0  1303               	bcf	3,6	;RP1=0, select bank1
  1583  0BF1  009F               	movwf	31	;volatile
  1584  0BF2                     l1879:
  1585                           
  1586                           ;main.c: 191:     _delay((unsigned long)((20)*(32000000/4000000.0)));
  1587  0BF2  3035               	movlw	53
  1588  0BF3  00F2               	movwf	??_init_ADC
  1589  0BF4                     u3427:
  1590  0BF4  0BF2               	decfsz	??_init_ADC,f
  1591  0BF5  2BF4               	goto	u3427
  1592  0BF6                     l156:
  1593  0BF6  0008               	return
  1594  0BF7                     __end_of_init_ADC:
  1595                           
  1596                           	psect	text6
  1597  0BD6                     __ptext6:	
  1598 ;; *************** function _initPic *****************
  1599 ;; Defined at:
  1600 ;;		line 193 in file "main.c"
  1601 ;; Parameters:    Size  Location     Type
  1602 ;;		None
  1603 ;; Auto vars:     Size  Location     Type
  1604 ;;		None
  1605 ;; Return value:  Size  Location     Type
  1606 ;;                  1    wreg      void 
  1607 ;; Registers used:
  1608 ;;		wreg, status,2
  1609 ;; Tracked objects:
  1610 ;;		On entry : 0/0
  1611 ;;		On exit  : 0/0
  1612 ;;		Unchanged: 0/0
  1613 ;; Data sizes:     COMMON   BANK0   BANK1   BANK3   BANK2
  1614 ;;      Params:         0       0       0       0       0
  1615 ;;      Locals:         0       0       0       0       0
  1616 ;;      Temps:          0       0       0       0       0
  1617 ;;      Totals:         0       0       0       0       0
  1618 ;;Total ram usage:        0 bytes
  1619 ;; Hardware stack levels used:    1
  1620 ;; Hardware stack levels required when called:    1
  1621 ;; This function calls:
  1622 ;;		Nothing
  1623 ;; This function is called by:
  1624 ;;		_main
  1625 ;; This function uses a non-reentrant model
  1626 ;;
  1627                           
  1628                           
  1629                           ;psect for function _initPic
  1630  0BD6                     _initPic:
  1631  0BD6                     l1865:	
  1632                           ;incstack = 0
  1633                           ; Regs used in _initPic: [wreg+status,2]
  1634                           
  1635                           
  1636                           ;main.c: 195:     TRISD = 0x00;
  1637  0BD6  1683               	bsf	3,5	;RP0=1, select bank1
  1638  0BD7  1303               	bcf	3,6	;RP1=0, select bank1
  1639  0BD8  0188               	clrf	8	;volatile
  1640                           
  1641                           ;main.c: 196:     TRISE = 0x00;
  1642  0BD9  0189               	clrf	9	;volatile
  1643                           
  1644                           ;main.c: 197:     TRISB = 0x00;
  1645  0BDA  0186               	clrf	6	;volatile
  1646                           
  1647                           ;main.c: 198:     TRISA = 0x00;
  1648  0BDB  0185               	clrf	5	;volatile
  1649  0BDC                     l1867:
  1650                           
  1651                           ;main.c: 200:     INTCON = 0xA0;
  1652  0BDC  30A0               	movlw	160
  1653  0BDD  008B               	movwf	11	;volatile
  1654  0BDE                     l1869:
  1655                           
  1656                           ;main.c: 201:     OPTION_REG = 0x02;
  1657  0BDE  3002               	movlw	2
  1658  0BDF  0081               	movwf	1	;volatile
  1659  0BE0                     l1871:
  1660                           
  1661                           ;main.c: 202:     TMR0 = 6;
  1662  0BE0  3006               	movlw	6
  1663  0BE1  1283               	bcf	3,5	;RP0=0, select bank0
  1664  0BE2  1303               	bcf	3,6	;RP1=0, select bank0
  1665  0BE3  0081               	movwf	1	;volatile
  1666  0BE4                     l159:
  1667  0BE4  0008               	return
  1668  0BE5                     __end_of_initPic:
  1669                           
  1670                           	psect	text7
  1671  0D2C                     __ptext7:	
  1672 ;; *************** function _initDisplayLCD *****************
  1673 ;; Defined at:
  1674 ;;		line 205 in file "main.c"
  1675 ;; Parameters:    Size  Location     Type
  1676 ;;		None
  1677 ;; Auto vars:     Size  Location     Type
  1678 ;;		None
  1679 ;; Return value:  Size  Location     Type
  1680 ;;                  1    wreg      void 
  1681 ;; Registers used:
  1682 ;;		wreg, status,2, status,0, pclath, cstack
  1683 ;; Tracked objects:
  1684 ;;		On entry : 0/0
  1685 ;;		On exit  : 0/0
  1686 ;;		Unchanged: 0/0
  1687 ;; Data sizes:     COMMON   BANK0   BANK1   BANK3   BANK2
  1688 ;;      Params:         0       0       0       0       0
  1689 ;;      Locals:         0       0       0       0       0
  1690 ;;      Temps:          2       0       0       0       0
  1691 ;;      Totals:         2       0       0       0       0
  1692 ;;Total ram usage:        2 bytes
  1693 ;; Hardware stack levels used:    1
  1694 ;; Hardware stack levels required when called:    2
  1695 ;; This function calls:
  1696 ;;		_sendCommand
  1697 ;; This function is called by:
  1698 ;;		_main
  1699 ;; This function uses a non-reentrant model
  1700 ;;
  1701                           
  1702                           
  1703                           ;psect for function _initDisplayLCD
  1704  0D2C                     _initDisplayLCD:
  1705  0D2C                     l1881:	
  1706                           ;incstack = 0
  1707                           ; Regs used in _initDisplayLCD: [wreg+status,2+status,0+pclath+cstack]
  1708                           
  1709                           
  1710                           ;main.c: 207:     PORTE = 0x00;
  1711  0D2C  1283               	bcf	3,5	;RP0=0, select bank0
  1712  0D2D  1303               	bcf	3,6	;RP1=0, select bank0
  1713  0D2E  0189               	clrf	9	;volatile
  1714  0D2F                     l1883:
  1715                           
  1716                           ;main.c: 208:     _delay((unsigned long)((20)*(32000000/4000.0)));
  1717  0D2F  30D0               	movlw	208
  1718  0D30  00F6               	movwf	??_initDisplayLCD+1
  1719  0D31  30C9               	movlw	201
  1720  0D32  00F5               	movwf	??_initDisplayLCD
  1721  0D33                     u3437:
  1722  0D33  0BF5               	decfsz	??_initDisplayLCD,f
  1723  0D34  2D33               	goto	u3437
  1724  0D35  0BF6               	decfsz	??_initDisplayLCD+1,f
  1725  0D36  2D33               	goto	u3437
  1726  0D37  2D38               	nop2
  1727                           
  1728                           ;main.c: 209:     PORTE = PORTE | 0x02;
  1729  0D38  1283               	bcf	3,5	;RP0=0, select bank0
  1730  0D39  1303               	bcf	3,6	;RP1=0, select bank0
  1731  0D3A  0809               	movf	9,w	;volatile
  1732  0D3B  3802               	iorlw	2
  1733  0D3C  0089               	movwf	9	;volatile
  1734  0D3D                     l1885:
  1735                           
  1736                           ;main.c: 210:     sendCommand(0x38);
  1737  0D3D  3038               	movlw	56
  1738  0D3E  120A  158A  2488  120A  158A  	fcall	_sendCommand
  1739  0D43                     l1887:
  1740                           
  1741                           ;main.c: 211:     _delay((unsigned long)((5)*(32000000/4000.0)));
  1742  0D43  3034               	movlw	52
  1743  0D44  00F6               	movwf	??_initDisplayLCD+1
  1744  0D45  30F1               	movlw	241
  1745  0D46  00F5               	movwf	??_initDisplayLCD
  1746  0D47                     u3447:
  1747  0D47  0BF5               	decfsz	??_initDisplayLCD,f
  1748  0D48  2D47               	goto	u3447
  1749  0D49  0BF6               	decfsz	??_initDisplayLCD+1,f
  1750  0D4A  2D47               	goto	u3447
  1751  0D4B  2D4C               	nop2
  1752  0D4C                     l1889:
  1753                           
  1754                           ;main.c: 212:     sendCommand(0x38);
  1755  0D4C  3038               	movlw	56
  1756  0D4D  120A  158A  2488  120A  158A  	fcall	_sendCommand
  1757  0D52                     l1891:
  1758                           
  1759                           ;main.c: 213:     _delay((unsigned long)((1)*(32000000/4000.0)));
  1760  0D52  300B               	movlw	11
  1761  0D53  00F6               	movwf	??_initDisplayLCD+1
  1762  0D54  3062               	movlw	98
  1763  0D55  00F5               	movwf	??_initDisplayLCD
  1764  0D56                     u3457:
  1765  0D56  0BF5               	decfsz	??_initDisplayLCD,f
  1766  0D57  2D56               	goto	u3457
  1767  0D58  0BF6               	decfsz	??_initDisplayLCD+1,f
  1768  0D59  2D56               	goto	u3457
  1769  0D5A  0000               	nop
  1770  0D5B                     l1893:
  1771                           
  1772                           ;main.c: 214:     sendCommand(0x38);
  1773  0D5B  3038               	movlw	56
  1774  0D5C  120A  158A  2488  120A  158A  	fcall	_sendCommand
  1775  0D61                     l1895:
  1776                           
  1777                           ;main.c: 215:     sendCommand(0x08);
  1778  0D61  3008               	movlw	8
  1779  0D62  120A  158A  2488  120A  158A  	fcall	_sendCommand
  1780  0D67                     l1897:
  1781                           
  1782                           ;main.c: 216:     sendCommand(0x0F);
  1783  0D67  300F               	movlw	15
  1784  0D68  120A  158A  2488  120A  158A  	fcall	_sendCommand
  1785  0D6D                     l1899:
  1786                           
  1787                           ;main.c: 217:     sendCommand(0x01);
  1788  0D6D  3001               	movlw	1
  1789  0D6E  120A  158A  2488  120A  158A  	fcall	_sendCommand
  1790  0D73                     l1901:
  1791                           
  1792                           ;main.c: 218:     sendCommand(0x0E);
  1793  0D73  300E               	movlw	14
  1794  0D74  120A  158A  2488  120A  158A  	fcall	_sendCommand
  1795  0D79                     l1903:
  1796                           
  1797                           ;main.c: 219:     sendCommand(0x80);
  1798  0D79  3080               	movlw	128
  1799  0D7A  120A  158A  2488  120A  158A  	fcall	_sendCommand
  1800  0D7F                     l162:
  1801  0D7F  0008               	return
  1802  0D80                     __end_of_initDisplayLCD:
  1803                           
  1804                           	psect	text8
  1805  0C88                     __ptext8:	
  1806 ;; *************** function _sendCommand *****************
  1807 ;; Defined at:
  1808 ;;		line 223 in file "main.c"
  1809 ;; Parameters:    Size  Location     Type
  1810 ;;  cmd             1    wreg     unsigned char 
  1811 ;; Auto vars:     Size  Location     Type
  1812 ;;  cmd             1    4[COMMON] unsigned char 
  1813 ;; Return value:  Size  Location     Type
  1814 ;;                  1    wreg      void 
  1815 ;; Registers used:
  1816 ;;		wreg, status,2
  1817 ;; Tracked objects:
  1818 ;;		On entry : 0/0
  1819 ;;		On exit  : 0/0
  1820 ;;		Unchanged: 0/0
  1821 ;; Data sizes:     COMMON   BANK0   BANK1   BANK3   BANK2
  1822 ;;      Params:         0       0       0       0       0
  1823 ;;      Locals:         1       0       0       0       0
  1824 ;;      Temps:          2       0       0       0       0
  1825 ;;      Totals:         3       0       0       0       0
  1826 ;;Total ram usage:        3 bytes
  1827 ;; Hardware stack levels used:    1
  1828 ;; Hardware stack levels required when called:    1
  1829 ;; This function calls:
  1830 ;;		Nothing
  1831 ;; This function is called by:
  1832 ;;		_main
  1833 ;;		_initDisplayLCD
  1834 ;; This function uses a non-reentrant model
  1835 ;;
  1836                           
  1837                           
  1838                           ;psect for function _sendCommand
  1839  0C88                     _sendCommand:
  1840                           
  1841                           ;incstack = 0
  1842                           ; Regs used in _sendCommand: [wreg+status,2]
  1843                           ;sendCommand@cmd stored from wreg
  1844  0C88  00F4               	movwf	sendCommand@cmd
  1845  0C89                     l1469:
  1846                           
  1847                           ;main.c: 223: void sendCommand(char cmd);main.c: 224: {;main.c: 225:     PORTE = PORTE |
      +                           0x02;
  1848  0C89  1283               	bcf	3,5	;RP0=0, select bank0
  1849  0C8A  1303               	bcf	3,6	;RP1=0, select bank0
  1850  0C8B  0809               	movf	9,w	;volatile
  1851  0C8C  3802               	iorlw	2
  1852  0C8D  0089               	movwf	9	;volatile
  1853  0C8E                     l1471:
  1854                           
  1855                           ;main.c: 226:     PORTD = cmd;
  1856  0C8E  0874               	movf	sendCommand@cmd,w
  1857  0C8F  0088               	movwf	8	;volatile
  1858  0C90                     l1473:
  1859                           
  1860                           ;main.c: 227:     PORTE = PORTE & ~0x04;
  1861  0C90  0809               	movf	9,w	;volatile
  1862  0C91  39FB               	andlw	251
  1863  0C92  0089               	movwf	9	;volatile
  1864                           
  1865                           ;main.c: 228:     _delay((unsigned long)((3)*(32000000/4000.0)));
  1866  0C93  3020               	movlw	32
  1867  0C94  00F3               	movwf	??_sendCommand+1
  1868  0C95  3029               	movlw	41
  1869  0C96  00F2               	movwf	??_sendCommand
  1870  0C97                     u3467:
  1871  0C97  0BF2               	decfsz	??_sendCommand,f
  1872  0C98  2C97               	goto	u3467
  1873  0C99  0BF3               	decfsz	??_sendCommand+1,f
  1874  0C9A  2C97               	goto	u3467
  1875  0C9B  2C9C               	nop2
  1876  0C9C                     l1475:
  1877                           
  1878                           ;main.c: 229:     PORTE = PORTE & ~0x02;
  1879  0C9C  1283               	bcf	3,5	;RP0=0, select bank0
  1880  0C9D  1303               	bcf	3,6	;RP1=0, select bank0
  1881  0C9E  0809               	movf	9,w	;volatile
  1882  0C9F  39FD               	andlw	253
  1883  0CA0  0089               	movwf	9	;volatile
  1884  0CA1                     l1477:
  1885                           
  1886                           ;main.c: 230:     _delay((unsigned long)((3)*(32000000/4000.0)));
  1887  0CA1  3020               	movlw	32
  1888  0CA2  00F3               	movwf	??_sendCommand+1
  1889  0CA3  3029               	movlw	41
  1890  0CA4  00F2               	movwf	??_sendCommand
  1891  0CA5                     u3477:
  1892  0CA5  0BF2               	decfsz	??_sendCommand,f
  1893  0CA6  2CA5               	goto	u3477
  1894  0CA7  0BF3               	decfsz	??_sendCommand+1,f
  1895  0CA8  2CA5               	goto	u3477
  1896  0CA9  2CAA               	nop2
  1897                           
  1898                           ;main.c: 231:     PORTE = PORTE | 0x02;
  1899  0CAA  1283               	bcf	3,5	;RP0=0, select bank0
  1900  0CAB  1303               	bcf	3,6	;RP1=0, select bank0
  1901  0CAC  0809               	movf	9,w	;volatile
  1902  0CAD  3802               	iorlw	2
  1903  0CAE  0089               	movwf	9	;volatile
  1904  0CAF                     l165:
  1905  0CAF  0008               	return
  1906  0CB0                     __end_of_sendCommand:
  1907                           
  1908                           	psect	text9
  1909  0F56                     __ptext9:	
  1910 ;; *************** function _getRealTemperature *****************
  1911 ;; Defined at:
  1912 ;;		line 110 in file "main.c"
  1913 ;; Parameters:    Size  Location     Type
  1914 ;;		None
  1915 ;; Auto vars:     Size  Location     Type
  1916 ;;		None
  1917 ;; Return value:  Size  Location     Type
  1918 ;;                  2   43[BANK0 ] int 
  1919 ;; Registers used:
  1920 ;;		wreg, status,2, status,0, btemp+1, pclath, cstack
  1921 ;; Tracked objects:
  1922 ;;		On entry : 0/0
  1923 ;;		On exit  : 0/0
  1924 ;;		Unchanged: 0/0
  1925 ;; Data sizes:     COMMON   BANK0   BANK1   BANK3   BANK2
  1926 ;;      Params:         0       2       0       0       0
  1927 ;;      Locals:         0       0       0       0       0
  1928 ;;      Temps:          0       0       0       0       0
  1929 ;;      Totals:         0       2       0       0       0
  1930 ;;Total ram usage:        2 bytes
  1931 ;; Hardware stack levels used:    1
  1932 ;; Hardware stack levels required when called:    3
  1933 ;; This function calls:
  1934 ;;		___fldiv
  1935 ;;		___flmul
  1936 ;;		___fltol
  1937 ;;		___xxtofl
  1938 ;;		_read_ADC
  1939 ;; This function is called by:
  1940 ;;		_main
  1941 ;; This function uses a non-reentrant model
  1942 ;;
  1943                           
  1944                           
  1945                           ;psect for function _getRealTemperature
  1946  0F56                     _getRealTemperature:
  1947  0F56                     l2297:	
  1948                           ;incstack = 0
  1949                           ; Regs used in _getRealTemperature: [wreg+status,2+status,0+btemp+1+pclath+cstack]
  1950                           
  1951                           
  1952                           ;main.c: 112:     val_ADC = read_ADC(2);
  1953  0F56  3002               	movlw	2
  1954  0F57  120A  118A  27DA  120A  158A  	fcall	_read_ADC
  1955  0F5C  0873               	movf	?_read_ADC+1,w
  1956  0F5D  1683               	bsf	3,5	;RP0=1, select bank1
  1957  0F5E  1303               	bcf	3,6	;RP1=0, select bank1
  1958  0F5F  00B4               	movwf	(_val_ADC+1)^(0+128)
  1959  0F60  0872               	movf	?_read_ADC,w
  1960  0F61  00B3               	movwf	_val_ADC^(0+128)
  1961  0F62                     l2299:
  1962                           
  1963                           ;main.c: 113:     volt = val_ADC*4.88281;
  1964  0F62  3040               	movlw	64
  1965  0F63  1283               	bcf	3,5	;RP0=0, select bank0
  1966  0F64  1303               	bcf	3,6	;RP1=0, select bank0
  1967  0F65  00A9               	movwf	___flmul@b+3
  1968  0F66  309C               	movlw	156
  1969  0F67  00A8               	movwf	___flmul@b+2
  1970  0F68  303F               	movlw	63
  1971  0F69  00A7               	movwf	___flmul@b+1
  1972  0F6A  30FB               	movlw	251
  1973  0F6B  00A6               	movwf	___flmul@b
  1974  0F6C  1683               	bsf	3,5	;RP0=1, select bank1
  1975  0F6D  1303               	bcf	3,6	;RP1=0, select bank1
  1976  0F6E  0833               	movf	_val_ADC^(0+128),w
  1977  0F6F  00F2               	movwf	___xxtofl@val
  1978  0F70  0834               	movf	(_val_ADC+1)^(0+128),w
  1979  0F71  00F3               	movwf	___xxtofl@val+1
  1980  0F72  3000               	movlw	0
  1981  0F73  1BF3               	btfsc	___xxtofl@val+1,7
  1982  0F74  30FF               	movlw	255
  1983  0F75  00F4               	movwf	___xxtofl@val+2
  1984  0F76  00F5               	movwf	___xxtofl@val+3
  1985  0F77  3001               	movlw	1
  1986  0F78  120A  118A  271E  120A  158A  	fcall	___xxtofl
  1987  0F7D  0875               	movf	?___xxtofl+3,w
  1988  0F7E  1283               	bcf	3,5	;RP0=0, select bank0
  1989  0F7F  1303               	bcf	3,6	;RP1=0, select bank0
  1990  0F80  00AD               	movwf	___flmul@a+3
  1991  0F81  0874               	movf	?___xxtofl+2,w
  1992  0F82  00AC               	movwf	___flmul@a+2
  1993  0F83  0873               	movf	?___xxtofl+1,w
  1994  0F84  00AB               	movwf	___flmul@a+1
  1995  0F85  0872               	movf	?___xxtofl,w
  1996  0F86  00AA               	movwf	___flmul@a
  1997  0F87  120A  118A  2040  120A  158A  	fcall	___flmul
  1998  0F8C  1283               	bcf	3,5	;RP0=0, select bank0
  1999  0F8D  1303               	bcf	3,6	;RP1=0, select bank0
  2000  0F8E  0829               	movf	?___flmul+3,w
  2001  0F8F  1683               	bsf	3,5	;RP0=1, select bank1
  2002  0F90  1303               	bcf	3,6	;RP1=0, select bank1
  2003  0F91  00BE               	movwf	(_volt+3)^(0+128)
  2004  0F92  1283               	bcf	3,5	;RP0=0, select bank0
  2005  0F93  1303               	bcf	3,6	;RP1=0, select bank0
  2006  0F94  0828               	movf	?___flmul+2,w
  2007  0F95  1683               	bsf	3,5	;RP0=1, select bank1
  2008  0F96  1303               	bcf	3,6	;RP1=0, select bank1
  2009  0F97  00BD               	movwf	(_volt+2)^(0+128)
  2010  0F98  1283               	bcf	3,5	;RP0=0, select bank0
  2011  0F99  1303               	bcf	3,6	;RP1=0, select bank0
  2012  0F9A  0827               	movf	?___flmul+1,w
  2013  0F9B  1683               	bsf	3,5	;RP0=1, select bank1
  2014  0F9C  1303               	bcf	3,6	;RP1=0, select bank1
  2015  0F9D  00BC               	movwf	(_volt+1)^(0+128)
  2016  0F9E  1283               	bcf	3,5	;RP0=0, select bank0
  2017  0F9F  1303               	bcf	3,6	;RP1=0, select bank0
  2018  0FA0  0826               	movf	?___flmul,w
  2019  0FA1  1683               	bsf	3,5	;RP0=1, select bank1
  2020  0FA2  1303               	bcf	3,6	;RP1=0, select bank1
  2021  0FA3  00BB               	movwf	_volt^(0+128)
  2022  0FA4                     l2301:
  2023                           
  2024                           ;main.c: 114:     temp = volt/10.0;
  2025  0FA4  3041               	movlw	65
  2026  0FA5  00F5               	movwf	___fldiv@a+3
  2027  0FA6  3020               	movlw	32
  2028  0FA7  00F4               	movwf	___fldiv@a+2
  2029  0FA8  3000               	movlw	0
  2030  0FA9  00F3               	movwf	___fldiv@a+1
  2031  0FAA  3000               	movlw	0
  2032  0FAB  00F2               	movwf	___fldiv@a
  2033  0FAC  083E               	movf	(_volt+3)^(0+128),w
  2034  0FAD  00F9               	movwf	___fldiv@b+3
  2035  0FAE  083D               	movf	(_volt+2)^(0+128),w
  2036  0FAF  00F8               	movwf	___fldiv@b+2
  2037  0FB0  083C               	movf	(_volt+1)^(0+128),w
  2038  0FB1  00F7               	movwf	___fldiv@b+1
  2039  0FB2  083B               	movf	_volt^(0+128),w
  2040  0FB3  00F6               	movwf	___fldiv@b
  2041  0FB4  120A  118A  23A1  120A  158A  	fcall	___fldiv
  2042  0FB9  0875               	movf	?___fldiv+3,w
  2043  0FBA  1683               	bsf	3,5	;RP0=1, select bank1
  2044  0FBB  1303               	bcf	3,6	;RP1=0, select bank1
  2045  0FBC  00BA               	movwf	(_temp+3)^(0+128)
  2046  0FBD  0874               	movf	?___fldiv+2,w
  2047  0FBE  00B9               	movwf	(_temp+2)^(0+128)
  2048  0FBF  0873               	movf	?___fldiv+1,w
  2049  0FC0  00B8               	movwf	(_temp+1)^(0+128)
  2050  0FC1  0872               	movf	?___fldiv,w
  2051  0FC2  00B7               	movwf	_temp^(0+128)
  2052  0FC3                     l2303:
  2053                           
  2054                           ;main.c: 115:     temp1 = temp*100;
  2055  0FC3  083A               	movf	(_temp+3)^(0+128),w
  2056  0FC4  1283               	bcf	3,5	;RP0=0, select bank0
  2057  0FC5  1303               	bcf	3,6	;RP1=0, select bank0
  2058  0FC6  00AD               	movwf	___flmul@a+3
  2059  0FC7  1683               	bsf	3,5	;RP0=1, select bank1
  2060  0FC8  1303               	bcf	3,6	;RP1=0, select bank1
  2061  0FC9  0839               	movf	(_temp+2)^(0+128),w
  2062  0FCA  1283               	bcf	3,5	;RP0=0, select bank0
  2063  0FCB  1303               	bcf	3,6	;RP1=0, select bank0
  2064  0FCC  00AC               	movwf	___flmul@a+2
  2065  0FCD  1683               	bsf	3,5	;RP0=1, select bank1
  2066  0FCE  1303               	bcf	3,6	;RP1=0, select bank1
  2067  0FCF  0838               	movf	(_temp+1)^(0+128),w
  2068  0FD0  1283               	bcf	3,5	;RP0=0, select bank0
  2069  0FD1  1303               	bcf	3,6	;RP1=0, select bank0
  2070  0FD2  00AB               	movwf	___flmul@a+1
  2071  0FD3  1683               	bsf	3,5	;RP0=1, select bank1
  2072  0FD4  1303               	bcf	3,6	;RP1=0, select bank1
  2073  0FD5  0837               	movf	_temp^(0+128),w
  2074  0FD6  1283               	bcf	3,5	;RP0=0, select bank0
  2075  0FD7  1303               	bcf	3,6	;RP1=0, select bank0
  2076  0FD8  00AA               	movwf	___flmul@a
  2077  0FD9  3042               	movlw	66
  2078  0FDA  00A9               	movwf	___flmul@b+3
  2079  0FDB  30C8               	movlw	200
  2080  0FDC  00A8               	movwf	___flmul@b+2
  2081  0FDD  3000               	movlw	0
  2082  0FDE  00A7               	movwf	___flmul@b+1
  2083  0FDF  3000               	movlw	0
  2084  0FE0  00A6               	movwf	___flmul@b
  2085  0FE1  120A  118A  2040  120A  158A  	fcall	___flmul
  2086  0FE6  1283               	bcf	3,5	;RP0=0, select bank0
  2087  0FE7  1303               	bcf	3,6	;RP1=0, select bank0
  2088  0FE8  0829               	movf	?___flmul+3,w
  2089  0FE9  00C3               	movwf	___fltol@f1+3
  2090  0FEA  0828               	movf	?___flmul+2,w
  2091  0FEB  00C2               	movwf	___fltol@f1+2
  2092  0FEC  0827               	movf	?___flmul+1,w
  2093  0FED  00C1               	movwf	___fltol@f1+1
  2094  0FEE  0826               	movf	?___flmul,w
  2095  0FEF  00C0               	movwf	___fltol@f1
  2096  0FF0  120A  158A  2644  120A  158A  	fcall	___fltol
  2097  0FF5  1283               	bcf	3,5	;RP0=0, select bank0
  2098  0FF6  1303               	bcf	3,6	;RP1=0, select bank0
  2099  0FF7  0841               	movf	?___fltol+1,w
  2100  0FF8  00E5               	movwf	_temp1+1
  2101  0FF9  0840               	movf	?___fltol,w
  2102  0FFA  00E4               	movwf	_temp1
  2103  0FFB                     l2305:
  2104                           
  2105                           ;main.c: 117:     return temp1;
  2106  0FFB  0865               	movf	_temp1+1,w
  2107  0FFC  00CC               	movwf	?_getRealTemperature+1
  2108  0FFD  0864               	movf	_temp1,w
  2109  0FFE  00CB               	movwf	?_getRealTemperature
  2110  0FFF                     l119:
  2111  0FFF  0008               	return
  2112  1000                     __end_of_getRealTemperature:
  2113                           
  2114                           	psect	text10
  2115  07DA                     __ptext10:	
  2116 ;; *************** function _read_ADC *****************
  2117 ;; Defined at:
  2118 ;;		line 164 in file "main.c"
  2119 ;; Parameters:    Size  Location     Type
  2120 ;;  ch              1    wreg     unsigned char 
  2121 ;; Auto vars:     Size  Location     Type
  2122 ;;  ch              1    5[COMMON] unsigned char 
  2123 ;; Return value:  Size  Location     Type
  2124 ;;                  2    2[COMMON] int 
  2125 ;; Registers used:
  2126 ;;		wreg, status,2, status,0
  2127 ;; Tracked objects:
  2128 ;;		On entry : 0/0
  2129 ;;		On exit  : 0/0
  2130 ;;		Unchanged: 0/0
  2131 ;; Data sizes:     COMMON   BANK0   BANK1   BANK3   BANK2
  2132 ;;      Params:         2       0       0       0       0
  2133 ;;      Locals:         1       0       0       0       0
  2134 ;;      Temps:          1       0       0       0       0
  2135 ;;      Totals:         4       0       0       0       0
  2136 ;;Total ram usage:        4 bytes
  2137 ;; Hardware stack levels used:    1
  2138 ;; Hardware stack levels required when called:    1
  2139 ;; This function calls:
  2140 ;;		Nothing
  2141 ;; This function is called by:
  2142 ;;		_getRealTemperature
  2143 ;; This function uses a non-reentrant model
  2144 ;;
  2145                           
  2146                           
  2147                           ;psect for function _read_ADC
  2148  07DA                     _read_ADC:
  2149                           
  2150                           ;incstack = 0
  2151                           ; Regs used in _read_ADC: [wreg+status,2+status,0]
  2152                           ;read_ADC@ch stored from wreg
  2153  07DA  00F5               	movwf	read_ADC@ch
  2154  07DB                     l1479:
  2155                           
  2156                           ;main.c: 164: int read_ADC(char ch);main.c: 165: {;main.c: 166:     TRISD = 0x00;
  2157  07DB  1683               	bsf	3,5	;RP0=1, select bank1
  2158  07DC  1303               	bcf	3,6	;RP1=0, select bank1
  2159  07DD  0188               	clrf	8	;volatile
  2160  07DE                     l1481:
  2161                           
  2162                           ;main.c: 167:     TRISA = TRISA | 0x04;
  2163  07DE  0805               	movf	5,w	;volatile
  2164  07DF  3804               	iorlw	4
  2165  07E0  0085               	movwf	5	;volatile
  2166  07E1                     l1483:
  2167                           
  2168                           ;main.c: 168:     ADCON0 = ADCON0 | (ch << 3);
  2169  07E1  0875               	movf	read_ADC@ch,w
  2170  07E2  00F4               	movwf	??_read_ADC
  2171  07E3  3002               	movlw	2
  2172  07E4                     u1415:
  2173  07E4  1003               	clrc
  2174  07E5  0DF4               	rlf	??_read_ADC,f
  2175  07E6  3EFF               	addlw	-1
  2176  07E7  1D03               	skipz
  2177  07E8  2FE4               	goto	u1415
  2178  07E9  1003               	clrc
  2179  07EA  0D74               	rlf	??_read_ADC,w
  2180  07EB  1283               	bcf	3,5	;RP0=0, select bank0
  2181  07EC  1303               	bcf	3,6	;RP1=0, select bank0
  2182  07ED  041F               	iorwf	31,w	;volatile
  2183  07EE  009F               	movwf	31	;volatile
  2184  07EF                     l1485:
  2185                           
  2186                           ;main.c: 169:     ADCON0 = ADCON0 | 0x04;
  2187  07EF  081F               	movf	31,w	;volatile
  2188  07F0  3804               	iorlw	4
  2189  07F1  009F               	movwf	31	;volatile
  2190  07F2                     l1487:	
  2191                           ;main.c: 170:     while(!(ADCON0&~0x04));
  2192                           
  2193  07F2  081F               	movf	31,w	;volatile
  2194  07F3  39FB               	andlw	251
  2195  07F4  1903               	btfsc	3,2
  2196  07F5  2FF7               	goto	u1421
  2197  07F6  2FF8               	goto	u1420
  2198  07F7                     u1421:
  2199  07F7  2FF2               	goto	l1487
  2200  07F8                     u1420:
  2201  07F8                     l1489:
  2202                           
  2203                           ;main.c: 171:     return ADRESL + (ADRESH << 8);
  2204  07F8  081E               	movf	30,w	;volatile
  2205  07F9  00F3               	movwf	?_read_ADC+1
  2206  07FA  1683               	bsf	3,5	;RP0=1, select bank1
  2207  07FB  1303               	bcf	3,6	;RP1=0, select bank1
  2208  07FC  081E               	movf	30,w	;volatile
  2209  07FD  00F2               	movwf	?_read_ADC
  2210  07FE                     l144:
  2211  07FE  0008               	return
  2212  07FF                     __end_of_read_ADC:
  2213                           
  2214                           	psect	text11
  2215  071E                     __ptext11:	
  2216 ;; *************** function ___xxtofl *****************
  2217 ;; Defined at:
  2218 ;;		line 10 in file "C:\Program Files\Microchip\xc8\v2.31\pic\sources\c90\common\xxtofl.c"
  2219 ;; Parameters:    Size  Location     Type
  2220 ;;  sign            1    wreg     unsigned char 
  2221 ;;  val             4    2[COMMON] long 
  2222 ;; Auto vars:     Size  Location     Type
  2223 ;;  sign            1    0[BANK0 ] unsigned char 
  2224 ;;  arg             4    2[BANK0 ] unsigned long 
  2225 ;;  exp             1    1[BANK0 ] unsigned char 
  2226 ;; Return value:  Size  Location     Type
  2227 ;;                  4    2[COMMON] unsigned char 
  2228 ;; Registers used:
  2229 ;;		wreg, status,2, status,0
  2230 ;; Tracked objects:
  2231 ;;		On entry : 0/0
  2232 ;;		On exit  : 0/0
  2233 ;;		Unchanged: 0/0
  2234 ;; Data sizes:     COMMON   BANK0   BANK1   BANK3   BANK2
  2235 ;;      Params:         4       0       0       0       0
  2236 ;;      Locals:         0       6       0       0       0
  2237 ;;      Temps:          4       0       0       0       0
  2238 ;;      Totals:         8       6       0       0       0
  2239 ;;Total ram usage:       14 bytes
  2240 ;; Hardware stack levels used:    1
  2241 ;; Hardware stack levels required when called:    1
  2242 ;; This function calls:
  2243 ;;		Nothing
  2244 ;; This function is called by:
  2245 ;;		_getRealTemperature
  2246 ;; This function uses a non-reentrant model
  2247 ;;
  2248                           
  2249                           
  2250                           ;psect for function ___xxtofl
  2251  071E                     ___xxtofl:
  2252                           
  2253                           ;incstack = 0
  2254                           ; Regs used in ___xxtofl: [wreg+status,2+status,0]
  2255                           ;___xxtofl@sign stored from wreg
  2256  071E  1283               	bcf	3,5	;RP0=0, select bank0
  2257  071F  1303               	bcf	3,6	;RP1=0, select bank0
  2258  0720  00A0               	movwf	___xxtofl@sign
  2259  0721                     l1821:
  2260  0721  0820               	movf	___xxtofl@sign,w
  2261  0722  1903               	btfsc	3,2
  2262  0723  2F25               	goto	u2201
  2263  0724  2F26               	goto	u2200
  2264  0725                     u2201:
  2265  0725  2F3A               	goto	l1827
  2266  0726                     u2200:
  2267  0726                     l1823:
  2268  0726  1FF5               	btfss	___xxtofl@val+3,7
  2269  0727  2F29               	goto	u2211
  2270  0728  2F2A               	goto	u2210
  2271  0729                     u2211:
  2272  0729  2F3A               	goto	l1827
  2273  072A                     u2210:
  2274  072A                     l1825:
  2275  072A  0972               	comf	___xxtofl@val,w
  2276  072B  00A2               	movwf	___xxtofl@arg
  2277  072C  0973               	comf	___xxtofl@val+1,w
  2278  072D  00A3               	movwf	___xxtofl@arg+1
  2279  072E  0974               	comf	___xxtofl@val+2,w
  2280  072F  00A4               	movwf	___xxtofl@arg+2
  2281  0730  0975               	comf	___xxtofl@val+3,w
  2282  0731  00A5               	movwf	___xxtofl@arg+3
  2283  0732  0AA2               	incf	___xxtofl@arg,f
  2284  0733  1903               	skipnz
  2285  0734  0AA3               	incf	___xxtofl@arg+1,f
  2286  0735  1903               	skipnz
  2287  0736  0AA4               	incf	___xxtofl@arg+2,f
  2288  0737  1903               	skipnz
  2289  0738  0AA5               	incf	___xxtofl@arg+3,f
  2290  0739  2F42               	goto	l694
  2291  073A                     l1827:
  2292  073A  0875               	movf	___xxtofl@val+3,w
  2293  073B  00A5               	movwf	___xxtofl@arg+3
  2294  073C  0874               	movf	___xxtofl@val+2,w
  2295  073D  00A4               	movwf	___xxtofl@arg+2
  2296  073E  0873               	movf	___xxtofl@val+1,w
  2297  073F  00A3               	movwf	___xxtofl@arg+1
  2298  0740  0872               	movf	___xxtofl@val,w
  2299  0741  00A2               	movwf	___xxtofl@arg
  2300  0742                     l694:
  2301  0742  0875               	movf	___xxtofl@val+3,w
  2302  0743  0474               	iorwf	___xxtofl@val+2,w
  2303  0744  0473               	iorwf	___xxtofl@val+1,w
  2304  0745  0472               	iorwf	___xxtofl@val,w
  2305  0746  1D03               	skipz
  2306  0747  2F49               	goto	u2221
  2307  0748  2F4A               	goto	u2220
  2308  0749                     u2221:
  2309  0749  2F53               	goto	l1833
  2310  074A                     u2220:
  2311  074A                     l1829:
  2312  074A  3000               	movlw	0
  2313  074B  00F5               	movwf	?___xxtofl+3
  2314  074C  3000               	movlw	0
  2315  074D  00F4               	movwf	?___xxtofl+2
  2316  074E  3000               	movlw	0
  2317  074F  00F3               	movwf	?___xxtofl+1
  2318  0750  3000               	movlw	0
  2319  0751  00F2               	movwf	?___xxtofl
  2320  0752  2FD9               	goto	l696
  2321  0753                     l1833:
  2322  0753  3096               	movlw	150
  2323  0754  00F6               	movwf	??___xxtofl
  2324  0755  0876               	movf	??___xxtofl,w
  2325  0756  00A1               	movwf	___xxtofl@exp
  2326  0757  2F65               	goto	l1837
  2327  0758                     l1835:
  2328  0758  3001               	movlw	1
  2329  0759  00F6               	movwf	??___xxtofl
  2330  075A  0876               	movf	??___xxtofl,w
  2331  075B  07A1               	addwf	___xxtofl@exp,f
  2332  075C  3001               	movlw	1
  2333  075D                     u2235:
  2334  075D  1003               	clrc
  2335  075E  0CA5               	rrf	___xxtofl@arg+3,f
  2336  075F  0CA4               	rrf	___xxtofl@arg+2,f
  2337  0760  0CA3               	rrf	___xxtofl@arg+1,f
  2338  0761  0CA2               	rrf	___xxtofl@arg,f
  2339  0762  3EFF               	addlw	-1
  2340  0763  1D03               	skipz
  2341  0764  2F5D               	goto	u2235
  2342  0765                     l1837:
  2343  0765  30FE               	movlw	254
  2344  0766  0525               	andwf	___xxtofl@arg+3,w
  2345  0767  1D03               	btfss	3,2
  2346  0768  2F6A               	goto	u2241
  2347  0769  2F6B               	goto	u2240
  2348  076A                     u2241:
  2349  076A  2F58               	goto	l1835
  2350  076B                     u2240:
  2351  076B  2F87               	goto	l700
  2352  076C                     l1839:
  2353  076C  3001               	movlw	1
  2354  076D  00F6               	movwf	??___xxtofl
  2355  076E  0876               	movf	??___xxtofl,w
  2356  076F  07A1               	addwf	___xxtofl@exp,f
  2357  0770                     l1841:
  2358  0770  3001               	movlw	1
  2359  0771  07A2               	addwf	___xxtofl@arg,f
  2360  0772  3000               	movlw	0
  2361  0773  1803               	skipnc
  2362  0774  3001               	movlw	1
  2363  0775  07A3               	addwf	___xxtofl@arg+1,f
  2364  0776  3000               	movlw	0
  2365  0777  1803               	skipnc
  2366  0778  3001               	movlw	1
  2367  0779  07A4               	addwf	___xxtofl@arg+2,f
  2368  077A  3000               	movlw	0
  2369  077B  1803               	skipnc
  2370  077C  3001               	movlw	1
  2371  077D  07A5               	addwf	___xxtofl@arg+3,f
  2372  077E                     l1843:
  2373  077E  3001               	movlw	1
  2374  077F                     u2255:
  2375  077F  1003               	clrc
  2376  0780  0CA5               	rrf	___xxtofl@arg+3,f
  2377  0781  0CA4               	rrf	___xxtofl@arg+2,f
  2378  0782  0CA3               	rrf	___xxtofl@arg+1,f
  2379  0783  0CA2               	rrf	___xxtofl@arg,f
  2380  0784  3EFF               	addlw	-1
  2381  0785  1D03               	skipz
  2382  0786  2F7F               	goto	u2255
  2383  0787                     l700:
  2384  0787  30FF               	movlw	255
  2385  0788  0525               	andwf	___xxtofl@arg+3,w
  2386  0789  1D03               	btfss	3,2
  2387  078A  2F8C               	goto	u2261
  2388  078B  2F8D               	goto	u2260
  2389  078C                     u2261:
  2390  078C  2F6C               	goto	l1839
  2391  078D                     u2260:
  2392  078D  2F99               	goto	l1847
  2393  078E                     l1845:
  2394  078E  3001               	movlw	1
  2395  078F  02A1               	subwf	___xxtofl@exp,f
  2396  0790  3001               	movlw	1
  2397  0791  00F6               	movwf	??___xxtofl
  2398  0792                     u2275:
  2399  0792  1003               	clrc
  2400  0793  0DA2               	rlf	___xxtofl@arg,f
  2401  0794  0DA3               	rlf	___xxtofl@arg+1,f
  2402  0795  0DA4               	rlf	___xxtofl@arg+2,f
  2403  0796  0DA5               	rlf	___xxtofl@arg+3,f
  2404  0797  0BF6               	decfsz	??___xxtofl,f
  2405  0798  2F92               	goto	u2275
  2406  0799                     l1847:
  2407  0799  1BA4               	btfsc	___xxtofl@arg+2,7
  2408  079A  2F9C               	goto	u2281
  2409  079B  2F9D               	goto	u2280
  2410  079C                     u2281:
  2411  079C  2FA3               	goto	l707
  2412  079D                     u2280:
  2413  079D                     l1849:
  2414  079D  3002               	movlw	2
  2415  079E  0221               	subwf	___xxtofl@exp,w
  2416  079F  1803               	skipnc
  2417  07A0  2FA2               	goto	u2291
  2418  07A1  2FA3               	goto	u2290
  2419  07A2                     u2291:
  2420  07A2  2F8E               	goto	l1845
  2421  07A3                     u2290:
  2422  07A3                     l707:
  2423  07A3  1821               	btfsc	___xxtofl@exp,0
  2424  07A4  2FA6               	goto	u2301
  2425  07A5  2FA7               	goto	u2300
  2426  07A6                     u2301:
  2427  07A6  2FAF               	goto	l708
  2428  07A7                     u2300:
  2429  07A7                     l1851:
  2430  07A7  30FF               	movlw	255
  2431  07A8  05A2               	andwf	___xxtofl@arg,f
  2432  07A9  30FF               	movlw	255
  2433  07AA  05A3               	andwf	___xxtofl@arg+1,f
  2434  07AB  307F               	movlw	127
  2435  07AC  05A4               	andwf	___xxtofl@arg+2,f
  2436  07AD  30FF               	movlw	255
  2437  07AE  05A5               	andwf	___xxtofl@arg+3,f
  2438  07AF                     l708:
  2439  07AF  1003               	clrc
  2440  07B0  0CA1               	rrf	___xxtofl@exp,f
  2441  07B1                     l1853:
  2442  07B1  0821               	movf	___xxtofl@exp,w
  2443  07B2  00F6               	movwf	??___xxtofl
  2444  07B3  01F7               	clrf	??___xxtofl+1
  2445  07B4  01F8               	clrf	??___xxtofl+2
  2446  07B5  01F9               	clrf	??___xxtofl+3
  2447  07B6  3018               	movlw	24
  2448  07B7                     u2315:
  2449  07B7  1003               	clrc
  2450  07B8  0DF6               	rlf	??___xxtofl,f
  2451  07B9  0DF7               	rlf	??___xxtofl+1,f
  2452  07BA  0DF8               	rlf	??___xxtofl+2,f
  2453  07BB  0DF9               	rlf	??___xxtofl+3,f
  2454  07BC                     u2310:
  2455  07BC  3EFF               	addlw	-1
  2456  07BD  1D03               	skipz
  2457  07BE  2FB7               	goto	u2315
  2458  07BF  0876               	movf	??___xxtofl,w
  2459  07C0  04A2               	iorwf	___xxtofl@arg,f
  2460  07C1  0877               	movf	??___xxtofl+1,w
  2461  07C2  04A3               	iorwf	___xxtofl@arg+1,f
  2462  07C3  0878               	movf	??___xxtofl+2,w
  2463  07C4  04A4               	iorwf	___xxtofl@arg+2,f
  2464  07C5  0879               	movf	??___xxtofl+3,w
  2465  07C6  04A5               	iorwf	___xxtofl@arg+3,f
  2466  07C7                     l1855:
  2467  07C7  0820               	movf	___xxtofl@sign,w
  2468  07C8  1903               	btfsc	3,2
  2469  07C9  2FCB               	goto	u2321
  2470  07CA  2FCC               	goto	u2320
  2471  07CB                     u2321:
  2472  07CB  2FD1               	goto	l1861
  2473  07CC                     u2320:
  2474  07CC                     l1857:
  2475  07CC  1FF5               	btfss	___xxtofl@val+3,7
  2476  07CD  2FCF               	goto	u2331
  2477  07CE  2FD0               	goto	u2330
  2478  07CF                     u2331:
  2479  07CF  2FD1               	goto	l1861
  2480  07D0                     u2330:
  2481  07D0                     l1859:
  2482  07D0  17A5               	bsf	___xxtofl@arg+3,7
  2483  07D1                     l1861:
  2484  07D1  0825               	movf	___xxtofl@arg+3,w
  2485  07D2  00F5               	movwf	?___xxtofl+3
  2486  07D3  0824               	movf	___xxtofl@arg+2,w
  2487  07D4  00F4               	movwf	?___xxtofl+2
  2488  07D5  0823               	movf	___xxtofl@arg+1,w
  2489  07D6  00F3               	movwf	?___xxtofl+1
  2490  07D7  0822               	movf	___xxtofl@arg,w
  2491  07D8  00F2               	movwf	?___xxtofl
  2492  07D9                     l696:
  2493  07D9  0008               	return
  2494  07DA                     __end_of___xxtofl:
  2495                           
  2496                           	psect	text12
  2497  0E44                     __ptext12:	
  2498 ;; *************** function ___fltol *****************
  2499 ;; Defined at:
  2500 ;;		line 43 in file "C:\Program Files\Microchip\xc8\v2.31\pic\sources\c90\common\fltol.c"
  2501 ;; Parameters:    Size  Location     Type
  2502 ;;  f1              4   32[BANK0 ] unsigned char 
  2503 ;; Auto vars:     Size  Location     Type
  2504 ;;  exp1            1   42[BANK0 ] unsigned char 
  2505 ;;  sign1           1   41[BANK0 ] unsigned char 
  2506 ;; Return value:  Size  Location     Type
  2507 ;;                  4   32[BANK0 ] long 
  2508 ;; Registers used:
  2509 ;;		wreg, status,2, status,0
  2510 ;; Tracked objects:
  2511 ;;		On entry : 0/0
  2512 ;;		On exit  : 0/0
  2513 ;;		Unchanged: 0/0
  2514 ;; Data sizes:     COMMON   BANK0   BANK1   BANK3   BANK2
  2515 ;;      Params:         0       4       0       0       0
  2516 ;;      Locals:         0       2       0       0       0
  2517 ;;      Temps:          0       5       0       0       0
  2518 ;;      Totals:         0      11       0       0       0
  2519 ;;Total ram usage:       11 bytes
  2520 ;; Hardware stack levels used:    1
  2521 ;; Hardware stack levels required when called:    1
  2522 ;; This function calls:
  2523 ;;		Nothing
  2524 ;; This function is called by:
  2525 ;;		_getRealTemperature
  2526 ;; This function uses a non-reentrant model
  2527 ;;
  2528                           
  2529                           
  2530                           ;psect for function ___fltol
  2531  0E44                     ___fltol:
  2532  0E44                     l1503:	
  2533                           ;incstack = 0
  2534                           ; Regs used in ___fltol: [wreg+status,2+status,0]
  2535                           
  2536  0E44  1003               	clrc
  2537  0E45  1283               	bcf	3,5	;RP0=0, select bank0
  2538  0E46  1303               	bcf	3,6	;RP1=0, select bank0
  2539  0E47  0D42               	rlf	___fltol@f1+2,w
  2540  0E48  0D43               	rlf	___fltol@f1+3,w
  2541  0E49  00C4               	movwf	??___fltol
  2542  0E4A  0844               	movf	??___fltol,w
  2543  0E4B  00CA               	movwf	___fltol@exp1
  2544  0E4C  084A               	movf	___fltol@exp1,w
  2545  0E4D  1D03               	btfss	3,2
  2546  0E4E  2E50               	goto	u1431
  2547  0E4F  2E51               	goto	u1430
  2548  0E50                     u1431:
  2549  0E50  2E5A               	goto	l1509
  2550  0E51                     u1430:
  2551  0E51                     l1505:
  2552  0E51  3000               	movlw	0
  2553  0E52  00C3               	movwf	?___fltol+3
  2554  0E53  3000               	movlw	0
  2555  0E54  00C2               	movwf	?___fltol+2
  2556  0E55  3000               	movlw	0
  2557  0E56  00C1               	movwf	?___fltol+1
  2558  0E57  3000               	movlw	0
  2559  0E58  00C0               	movwf	?___fltol
  2560  0E59  2EBF               	goto	l447
  2561  0E5A                     l1509:
  2562  0E5A  0840               	movf	___fltol@f1,w
  2563  0E5B  00C4               	movwf	??___fltol
  2564  0E5C  0841               	movf	___fltol@f1+1,w
  2565  0E5D  00C5               	movwf	??___fltol+1
  2566  0E5E  0842               	movf	___fltol@f1+2,w
  2567  0E5F  00C6               	movwf	??___fltol+2
  2568  0E60  0843               	movf	___fltol@f1+3,w
  2569  0E61  00C7               	movwf	??___fltol+3
  2570  0E62  301F               	movlw	31
  2571  0E63                     u1445:
  2572  0E63  1003               	clrc
  2573  0E64  0CC7               	rrf	??___fltol+3,f
  2574  0E65  0CC6               	rrf	??___fltol+2,f
  2575  0E66  0CC5               	rrf	??___fltol+1,f
  2576  0E67  0CC4               	rrf	??___fltol,f
  2577  0E68                     u1440:
  2578  0E68  3EFF               	addlw	-1
  2579  0E69  1D03               	skipz
  2580  0E6A  2E63               	goto	u1445
  2581  0E6B  0844               	movf	??___fltol,w
  2582  0E6C  00C8               	movwf	??___fltol+4
  2583  0E6D  0848               	movf	??___fltol+4,w
  2584  0E6E  00C9               	movwf	___fltol@sign1
  2585  0E6F                     l1511:
  2586  0E6F  17C2               	bsf	___fltol@f1+2,7
  2587  0E70                     l1513:
  2588  0E70  30FF               	movlw	255
  2589  0E71  05C0               	andwf	___fltol@f1,f
  2590  0E72  30FF               	movlw	255
  2591  0E73  05C1               	andwf	___fltol@f1+1,f
  2592  0E74  30FF               	movlw	255
  2593  0E75  05C2               	andwf	___fltol@f1+2,f
  2594  0E76  3000               	movlw	0
  2595  0E77  05C3               	andwf	___fltol@f1+3,f
  2596  0E78                     l1515:
  2597  0E78  3096               	movlw	150
  2598  0E79  02CA               	subwf	___fltol@exp1,f
  2599  0E7A                     l1517:
  2600  0E7A  1FCA               	btfss	___fltol@exp1,7
  2601  0E7B  2E7D               	goto	u1451
  2602  0E7C  2E7E               	goto	u1450
  2603  0E7D                     u1451:
  2604  0E7D  2E98               	goto	l1527
  2605  0E7E                     u1450:
  2606  0E7E                     l1519:
  2607  0E7E  084A               	movf	___fltol@exp1,w
  2608  0E7F  3A80               	xorlw	128
  2609  0E80  3E97               	addlw	151
  2610  0E81  1803               	skipnc
  2611  0E82  2E84               	goto	u1461
  2612  0E83  2E85               	goto	u1460
  2613  0E84                     u1461:
  2614  0E84  2E86               	goto	l1525
  2615  0E85                     u1460:
  2616  0E85  2E51               	goto	l1505
  2617  0E86                     l1525:
  2618  0E86  3001               	movlw	1
  2619  0E87                     u1475:
  2620  0E87  1003               	clrc
  2621  0E88  0CC3               	rrf	___fltol@f1+3,f
  2622  0E89  0CC2               	rrf	___fltol@f1+2,f
  2623  0E8A  0CC1               	rrf	___fltol@f1+1,f
  2624  0E8B  0CC0               	rrf	___fltol@f1,f
  2625  0E8C  3EFF               	addlw	-1
  2626  0E8D  1D03               	skipz
  2627  0E8E  2E87               	goto	u1475
  2628  0E8F  3001               	movlw	1
  2629  0E90  00C4               	movwf	??___fltol
  2630  0E91  0844               	movf	??___fltol,w
  2631  0E92  07CA               	addwf	___fltol@exp1,f
  2632  0E93  1D03               	btfss	3,2
  2633  0E94  2E96               	goto	u1481
  2634  0E95  2E97               	goto	u1480
  2635  0E96                     u1481:
  2636  0E96  2E86               	goto	l1525
  2637  0E97                     u1480:
  2638  0E97  2EAF               	goto	l1535
  2639  0E98                     l1527:
  2640  0E98  3020               	movlw	32
  2641  0E99  024A               	subwf	___fltol@exp1,w
  2642  0E9A  1C03               	skipc
  2643  0E9B  2E9D               	goto	u1491
  2644  0E9C  2E9E               	goto	u1490
  2645  0E9D                     u1491:
  2646  0E9D  2EAA               	goto	l454
  2647  0E9E                     u1490:
  2648  0E9E  2E51               	goto	l1505
  2649  0E9F                     l1533:
  2650  0E9F  3001               	movlw	1
  2651  0EA0  00C4               	movwf	??___fltol
  2652  0EA1                     u1505:
  2653  0EA1  1003               	clrc
  2654  0EA2  0DC0               	rlf	___fltol@f1,f
  2655  0EA3  0DC1               	rlf	___fltol@f1+1,f
  2656  0EA4  0DC2               	rlf	___fltol@f1+2,f
  2657  0EA5  0DC3               	rlf	___fltol@f1+3,f
  2658  0EA6  0BC4               	decfsz	??___fltol,f
  2659  0EA7  2EA1               	goto	u1505
  2660  0EA8  3001               	movlw	1
  2661  0EA9  02CA               	subwf	___fltol@exp1,f
  2662  0EAA                     l454:
  2663  0EAA  084A               	movf	___fltol@exp1,w
  2664  0EAB  1D03               	btfss	3,2
  2665  0EAC  2EAE               	goto	u1511
  2666  0EAD  2EAF               	goto	u1510
  2667  0EAE                     u1511:
  2668  0EAE  2E9F               	goto	l1533
  2669  0EAF                     u1510:
  2670  0EAF                     l1535:
  2671  0EAF  0849               	movf	___fltol@sign1,w
  2672  0EB0  1903               	btfsc	3,2
  2673  0EB1  2EB3               	goto	u1521
  2674  0EB2  2EB4               	goto	u1520
  2675  0EB3                     u1521:
  2676  0EB3  2EBF               	goto	l457
  2677  0EB4                     u1520:
  2678  0EB4                     l1537:
  2679  0EB4  09C0               	comf	___fltol@f1,f
  2680  0EB5  09C1               	comf	___fltol@f1+1,f
  2681  0EB6  09C2               	comf	___fltol@f1+2,f
  2682  0EB7  09C3               	comf	___fltol@f1+3,f
  2683  0EB8  0AC0               	incf	___fltol@f1,f
  2684  0EB9  1903               	skipnz
  2685  0EBA  0AC1               	incf	___fltol@f1+1,f
  2686  0EBB  1903               	skipnz
  2687  0EBC  0AC2               	incf	___fltol@f1+2,f
  2688  0EBD  1903               	skipnz
  2689  0EBE  0AC3               	incf	___fltol@f1+3,f
  2690  0EBF                     l457:
  2691  0EBF                     l447:
  2692  0EBF  0008               	return
  2693  0EC0                     __end_of___fltol:
  2694                           
  2695                           	psect	text13
  2696  0040                     __ptext13:	
  2697 ;; *************** function ___flmul *****************
  2698 ;; Defined at:
  2699 ;;		line 8 in file "C:\Program Files\Microchip\xc8\v2.31\pic\sources\c90\common\sprcmul.c"
  2700 ;; Parameters:    Size  Location     Type
  2701 ;;  b               4    6[BANK0 ] long 
  2702 ;;  a               4   10[BANK0 ] long 
  2703 ;; Auto vars:     Size  Location     Type
  2704 ;;  prod            4   26[BANK0 ] struct .
  2705 ;;  grs             4   21[BANK0 ] unsigned long 
  2706 ;;  temp            2   30[BANK0 ] struct .
  2707 ;;  bexp            1   25[BANK0 ] unsigned char 
  2708 ;;  aexp            1   20[BANK0 ] unsigned char 
  2709 ;;  sign            1   19[BANK0 ] unsigned char 
  2710 ;; Return value:  Size  Location     Type
  2711 ;;                  4    6[BANK0 ] unsigned char 
  2712 ;; Registers used:
  2713 ;;		wreg, status,2, status,0, btemp+1, pclath, cstack
  2714 ;; Tracked objects:
  2715 ;;		On entry : 0/0
  2716 ;;		On exit  : 0/0
  2717 ;;		Unchanged: 0/0
  2718 ;; Data sizes:     COMMON   BANK0   BANK1   BANK3   BANK2
  2719 ;;      Params:         0       8       0       0       0
  2720 ;;      Locals:         0      13       0       0       0
  2721 ;;      Temps:          0       5       0       0       0
  2722 ;;      Totals:         0      26       0       0       0
  2723 ;;Total ram usage:       26 bytes
  2724 ;; Hardware stack levels used:    1
  2725 ;; Hardware stack levels required when called:    2
  2726 ;; This function calls:
  2727 ;;		__Umul8_16
  2728 ;; This function is called by:
  2729 ;;		_getRealTemperature
  2730 ;; This function uses a non-reentrant model
  2731 ;;
  2732                           
  2733                           
  2734                           ;psect for function ___flmul
  2735  0040                     ___flmul:
  2736  0040                     l2157:	
  2737                           ;incstack = 0
  2738                           ; Regs used in ___flmul: [wreg+status,2+status,0+btemp+1+pclath+cstack]
  2739                           
  2740  0040  1283               	bcf	3,5	;RP0=0, select bank0
  2741  0041  1303               	bcf	3,6	;RP1=0, select bank0
  2742  0042  0829               	movf	___flmul@b+3,w
  2743  0043  3980               	andlw	128
  2744  0044  00AE               	movwf	??___flmul
  2745  0045  082E               	movf	??___flmul,w
  2746  0046  00B3               	movwf	___flmul@sign
  2747  0047                     l2159:
  2748  0047  0829               	movf	___flmul@b+3,w
  2749  0048  00AE               	movwf	??___flmul
  2750  0049  072E               	addwf	??___flmul,w
  2751  004A  00AF               	movwf	??___flmul+1
  2752  004B  082F               	movf	??___flmul+1,w
  2753  004C  00B9               	movwf	___flmul@bexp
  2754  004D                     l2161:
  2755  004D  1FA8               	btfss	___flmul@b+2,7
  2756  004E  2850               	goto	u2781
  2757  004F  2851               	goto	u2780
  2758  0050                     u2781:
  2759  0050  2852               	goto	l2165
  2760  0051                     u2780:
  2761  0051                     l2163:
  2762  0051  1439               	bsf	___flmul@bexp,0
  2763  0052                     l2165:
  2764  0052  0839               	movf	___flmul@bexp,w
  2765  0053  1903               	btfsc	3,2
  2766  0054  2856               	goto	u2791
  2767  0055  2857               	goto	u2790
  2768  0056                     u2791:
  2769  0056  2866               	goto	l2173
  2770  0057                     u2790:
  2771  0057                     l2167:
  2772  0057  0A39               	incf	___flmul@bexp,w
  2773  0058  1D03               	btfss	3,2
  2774  0059  285B               	goto	u2801
  2775  005A  285C               	goto	u2800
  2776  005B                     u2801:
  2777  005B  2864               	goto	l2171
  2778  005C                     u2800:
  2779  005C                     l2169:
  2780  005C  3000               	movlw	0
  2781  005D  00A9               	movwf	___flmul@b+3
  2782  005E  3000               	movlw	0
  2783  005F  00A8               	movwf	___flmul@b+2
  2784  0060  3000               	movlw	0
  2785  0061  00A7               	movwf	___flmul@b+1
  2786  0062  3000               	movlw	0
  2787  0063  00A6               	movwf	___flmul@b
  2788  0064                     l2171:
  2789  0064  17A8               	bsf	___flmul@b+2,7
  2790  0065  286E               	goto	l2175
  2791  0066                     l2173:
  2792  0066  3000               	movlw	0
  2793  0067  00A9               	movwf	___flmul@b+3
  2794  0068  3000               	movlw	0
  2795  0069  00A8               	movwf	___flmul@b+2
  2796  006A  3000               	movlw	0
  2797  006B  00A7               	movwf	___flmul@b+1
  2798  006C  3000               	movlw	0
  2799  006D  00A6               	movwf	___flmul@b
  2800  006E                     l2175:
  2801  006E  082D               	movf	___flmul@a+3,w
  2802  006F  3980               	andlw	128
  2803  0070  00AE               	movwf	??___flmul
  2804  0071  082E               	movf	??___flmul,w
  2805  0072  06B3               	xorwf	___flmul@sign,f
  2806  0073                     l2177:
  2807  0073  082D               	movf	___flmul@a+3,w
  2808  0074  00AE               	movwf	??___flmul
  2809  0075  072E               	addwf	??___flmul,w
  2810  0076  00AF               	movwf	??___flmul+1
  2811  0077  082F               	movf	??___flmul+1,w
  2812  0078  00B4               	movwf	___flmul@aexp
  2813  0079                     l2179:
  2814  0079  1FAC               	btfss	___flmul@a+2,7
  2815  007A  287C               	goto	u2811
  2816  007B  287D               	goto	u2810
  2817  007C                     u2811:
  2818  007C  287E               	goto	l2183
  2819  007D                     u2810:
  2820  007D                     l2181:
  2821  007D  1434               	bsf	___flmul@aexp,0
  2822  007E                     l2183:
  2823  007E  0834               	movf	___flmul@aexp,w
  2824  007F  1903               	btfsc	3,2
  2825  0080  2882               	goto	u2821
  2826  0081  2883               	goto	u2820
  2827  0082                     u2821:
  2828  0082  2892               	goto	l2191
  2829  0083                     u2820:
  2830  0083                     l2185:
  2831  0083  0A34               	incf	___flmul@aexp,w
  2832  0084  1D03               	btfss	3,2
  2833  0085  2887               	goto	u2831
  2834  0086  2888               	goto	u2830
  2835  0087                     u2831:
  2836  0087  2890               	goto	l2189
  2837  0088                     u2830:
  2838  0088                     l2187:
  2839  0088  3000               	movlw	0
  2840  0089  00AD               	movwf	___flmul@a+3
  2841  008A  3000               	movlw	0
  2842  008B  00AC               	movwf	___flmul@a+2
  2843  008C  3000               	movlw	0
  2844  008D  00AB               	movwf	___flmul@a+1
  2845  008E  3000               	movlw	0
  2846  008F  00AA               	movwf	___flmul@a
  2847  0090                     l2189:
  2848  0090  17AC               	bsf	___flmul@a+2,7
  2849  0091  289A               	goto	l2193
  2850  0092                     l2191:
  2851  0092  3000               	movlw	0
  2852  0093  00AD               	movwf	___flmul@a+3
  2853  0094  3000               	movlw	0
  2854  0095  00AC               	movwf	___flmul@a+2
  2855  0096  3000               	movlw	0
  2856  0097  00AB               	movwf	___flmul@a+1
  2857  0098  3000               	movlw	0
  2858  0099  00AA               	movwf	___flmul@a
  2859  009A                     l2193:
  2860  009A  0834               	movf	___flmul@aexp,w
  2861  009B  1903               	btfsc	3,2
  2862  009C  289E               	goto	u2841
  2863  009D  289F               	goto	u2840
  2864  009E                     u2841:
  2865  009E  28A4               	goto	l2197
  2866  009F                     u2840:
  2867  009F                     l2195:
  2868  009F  0839               	movf	___flmul@bexp,w
  2869  00A0  1D03               	btfss	3,2
  2870  00A1  28A3               	goto	u2851
  2871  00A2  28A4               	goto	u2850
  2872  00A3                     u2851:
  2873  00A3  28AD               	goto	l2201
  2874  00A4                     u2850:
  2875  00A4                     l2197:
  2876  00A4  3000               	movlw	0
  2877  00A5  00A9               	movwf	?___flmul+3
  2878  00A6  3000               	movlw	0
  2879  00A7  00A8               	movwf	?___flmul+2
  2880  00A8  3000               	movlw	0
  2881  00A9  00A7               	movwf	?___flmul+1
  2882  00AA  3000               	movlw	0
  2883  00AB  00A6               	movwf	?___flmul
  2884  00AC  2BA0               	goto	l650
  2885  00AD                     l2201:
  2886  00AD  0826               	movf	___flmul@b,w
  2887  00AE  00AE               	movwf	??___flmul
  2888  00AF  082E               	movf	??___flmul,w
  2889  00B0  00F2               	movwf	__Umul8_16@multiplicand
  2890  00B1  082C               	movf	___flmul@a+2,w
  2891  00B2  120A  158A  24D8  120A  118A  	fcall	__Umul8_16
  2892  00B7  0873               	movf	?__Umul8_16+1,w
  2893  00B8  1283               	bcf	3,5	;RP0=0, select bank0
  2894  00B9  1303               	bcf	3,6	;RP1=0, select bank0
  2895  00BA  00BF               	movwf	___flmul@temp+1
  2896  00BB  0872               	movf	?__Umul8_16,w
  2897  00BC  00BE               	movwf	___flmul@temp
  2898  00BD                     l2203:
  2899  00BD  083E               	movf	___flmul@temp,w
  2900  00BE  00AE               	movwf	??___flmul
  2901  00BF  01AF               	clrf	??___flmul+1
  2902  00C0  01B0               	clrf	??___flmul+2
  2903  00C1  01B1               	clrf	??___flmul+3
  2904  00C2  0831               	movf	??___flmul+3,w
  2905  00C3  00B8               	movwf	___flmul@grs+3
  2906  00C4  0830               	movf	??___flmul+2,w
  2907  00C5  00B7               	movwf	___flmul@grs+2
  2908  00C6  082F               	movf	??___flmul+1,w
  2909  00C7  00B6               	movwf	___flmul@grs+1
  2910  00C8  082E               	movf	??___flmul,w
  2911  00C9  00B5               	movwf	___flmul@grs
  2912  00CA                     l2205:
  2913  00CA  083F               	movf	___flmul@temp+1,w
  2914  00CB  00AE               	movwf	??___flmul
  2915  00CC  01AF               	clrf	??___flmul+1
  2916  00CD  01B0               	clrf	??___flmul+2
  2917  00CE  01B1               	clrf	??___flmul+3
  2918  00CF  0831               	movf	??___flmul+3,w
  2919  00D0  00BD               	movwf	___flmul@prod+3
  2920  00D1  0830               	movf	??___flmul+2,w
  2921  00D2  00BC               	movwf	___flmul@prod+2
  2922  00D3  082F               	movf	??___flmul+1,w
  2923  00D4  00BB               	movwf	___flmul@prod+1
  2924  00D5  082E               	movf	??___flmul,w
  2925  00D6  00BA               	movwf	___flmul@prod
  2926  00D7  0827               	movf	___flmul@b+1,w
  2927  00D8  00AE               	movwf	??___flmul
  2928  00D9  082E               	movf	??___flmul,w
  2929  00DA  00F2               	movwf	__Umul8_16@multiplicand
  2930  00DB  082B               	movf	___flmul@a+1,w
  2931  00DC  120A  158A  24D8  120A  118A  	fcall	__Umul8_16
  2932  00E1  0873               	movf	?__Umul8_16+1,w
  2933  00E2  1283               	bcf	3,5	;RP0=0, select bank0
  2934  00E3  1303               	bcf	3,6	;RP1=0, select bank0
  2935  00E4  00BF               	movwf	___flmul@temp+1
  2936  00E5  0872               	movf	?__Umul8_16,w
  2937  00E6  00BE               	movwf	___flmul@temp
  2938  00E7                     l2207:
  2939  00E7  083E               	movf	___flmul@temp,w
  2940  00E8  00AE               	movwf	??___flmul
  2941  00E9  01AF               	clrf	??___flmul+1
  2942  00EA  01B0               	clrf	??___flmul+2
  2943  00EB  01B1               	clrf	??___flmul+3
  2944  00EC  082E               	movf	??___flmul,w
  2945  00ED  07B5               	addwf	___flmul@grs,f
  2946  00EE  082F               	movf	??___flmul+1,w
  2947  00EF  1103               	clrz
  2948  00F0  1803               	skipnc
  2949  00F1  3E01               	addlw	1
  2950  00F2  1903               	skipnz
  2951  00F3  28F5               	goto	u2861
  2952  00F4  07B6               	addwf	___flmul@grs+1,f
  2953  00F5                     u2861:
  2954  00F5  0830               	movf	??___flmul+2,w
  2955  00F6  1103               	clrz
  2956  00F7  1803               	skipnc
  2957  00F8  3E01               	addlw	1
  2958  00F9  1903               	skipnz
  2959  00FA  28FC               	goto	u2862
  2960  00FB  07B7               	addwf	___flmul@grs+2,f
  2961  00FC                     u2862:
  2962  00FC  0831               	movf	??___flmul+3,w
  2963  00FD  1103               	clrz
  2964  00FE  1803               	skipnc
  2965  00FF  3E01               	addlw	1
  2966  0100  1903               	skipnz
  2967  0101  2903               	goto	u2863
  2968  0102  07B8               	addwf	___flmul@grs+3,f
  2969  0103                     u2863:
  2970  0103                     l2209:
  2971  0103  083F               	movf	___flmul@temp+1,w
  2972  0104  00AE               	movwf	??___flmul
  2973  0105  01AF               	clrf	??___flmul+1
  2974  0106  01B0               	clrf	??___flmul+2
  2975  0107  01B1               	clrf	??___flmul+3
  2976  0108  082E               	movf	??___flmul,w
  2977  0109  07BA               	addwf	___flmul@prod,f
  2978  010A  082F               	movf	??___flmul+1,w
  2979  010B  1103               	clrz
  2980  010C  1803               	skipnc
  2981  010D  3E01               	addlw	1
  2982  010E  1903               	skipnz
  2983  010F  2911               	goto	u2871
  2984  0110  07BB               	addwf	___flmul@prod+1,f
  2985  0111                     u2871:
  2986  0111  0830               	movf	??___flmul+2,w
  2987  0112  1103               	clrz
  2988  0113  1803               	skipnc
  2989  0114  3E01               	addlw	1
  2990  0115  1903               	skipnz
  2991  0116  2918               	goto	u2872
  2992  0117  07BC               	addwf	___flmul@prod+2,f
  2993  0118                     u2872:
  2994  0118  0831               	movf	??___flmul+3,w
  2995  0119  1103               	clrz
  2996  011A  1803               	skipnc
  2997  011B  3E01               	addlw	1
  2998  011C  1903               	skipnz
  2999  011D  291F               	goto	u2873
  3000  011E  07BD               	addwf	___flmul@prod+3,f
  3001  011F                     u2873:
  3002  011F  0828               	movf	___flmul@b+2,w
  3003  0120  00AE               	movwf	??___flmul
  3004  0121  082E               	movf	??___flmul,w
  3005  0122  00F2               	movwf	__Umul8_16@multiplicand
  3006  0123  082A               	movf	___flmul@a,w
  3007  0124  120A  158A  24D8  120A  118A  	fcall	__Umul8_16
  3008  0129  0873               	movf	?__Umul8_16+1,w
  3009  012A  1283               	bcf	3,5	;RP0=0, select bank0
  3010  012B  1303               	bcf	3,6	;RP1=0, select bank0
  3011  012C  00BF               	movwf	___flmul@temp+1
  3012  012D  0872               	movf	?__Umul8_16,w
  3013  012E  00BE               	movwf	___flmul@temp
  3014  012F                     l2211:
  3015  012F  083E               	movf	___flmul@temp,w
  3016  0130  00AE               	movwf	??___flmul
  3017  0131  01AF               	clrf	??___flmul+1
  3018  0132  01B0               	clrf	??___flmul+2
  3019  0133  01B1               	clrf	??___flmul+3
  3020  0134  082E               	movf	??___flmul,w
  3021  0135  07B5               	addwf	___flmul@grs,f
  3022  0136  082F               	movf	??___flmul+1,w
  3023  0137  1103               	clrz
  3024  0138  1803               	skipnc
  3025  0139  3E01               	addlw	1
  3026  013A  1903               	skipnz
  3027  013B  293D               	goto	u2881
  3028  013C  07B6               	addwf	___flmul@grs+1,f
  3029  013D                     u2881:
  3030  013D  0830               	movf	??___flmul+2,w
  3031  013E  1103               	clrz
  3032  013F  1803               	skipnc
  3033  0140  3E01               	addlw	1
  3034  0141  1903               	skipnz
  3035  0142  2944               	goto	u2882
  3036  0143  07B7               	addwf	___flmul@grs+2,f
  3037  0144                     u2882:
  3038  0144  0831               	movf	??___flmul+3,w
  3039  0145  1103               	clrz
  3040  0146  1803               	skipnc
  3041  0147  3E01               	addlw	1
  3042  0148  1903               	skipnz
  3043  0149  294B               	goto	u2883
  3044  014A  07B8               	addwf	___flmul@grs+3,f
  3045  014B                     u2883:
  3046  014B                     l2213:
  3047  014B  083F               	movf	___flmul@temp+1,w
  3048  014C  00AE               	movwf	??___flmul
  3049  014D  01AF               	clrf	??___flmul+1
  3050  014E  01B0               	clrf	??___flmul+2
  3051  014F  01B1               	clrf	??___flmul+3
  3052  0150  082E               	movf	??___flmul,w
  3053  0151  07BA               	addwf	___flmul@prod,f
  3054  0152  082F               	movf	??___flmul+1,w
  3055  0153  1103               	clrz
  3056  0154  1803               	skipnc
  3057  0155  3E01               	addlw	1
  3058  0156  1903               	skipnz
  3059  0157  2959               	goto	u2891
  3060  0158  07BB               	addwf	___flmul@prod+1,f
  3061  0159                     u2891:
  3062  0159  0830               	movf	??___flmul+2,w
  3063  015A  1103               	clrz
  3064  015B  1803               	skipnc
  3065  015C  3E01               	addlw	1
  3066  015D  1903               	skipnz
  3067  015E  2960               	goto	u2892
  3068  015F  07BC               	addwf	___flmul@prod+2,f
  3069  0160                     u2892:
  3070  0160  0831               	movf	??___flmul+3,w
  3071  0161  1103               	clrz
  3072  0162  1803               	skipnc
  3073  0163  3E01               	addlw	1
  3074  0164  1903               	skipnz
  3075  0165  2967               	goto	u2893
  3076  0166  07BD               	addwf	___flmul@prod+3,f
  3077  0167                     u2893:
  3078  0167                     l2215:
  3079  0167  3008               	movlw	8
  3080  0168  00AE               	movwf	??___flmul
  3081  0169                     u2905:
  3082  0169  1003               	clrc
  3083  016A  0DB5               	rlf	___flmul@grs,f
  3084  016B  0DB6               	rlf	___flmul@grs+1,f
  3085  016C  0DB7               	rlf	___flmul@grs+2,f
  3086  016D  0DB8               	rlf	___flmul@grs+3,f
  3087  016E  0BAE               	decfsz	??___flmul,f
  3088  016F  2969               	goto	u2905
  3089  0170                     l2217:
  3090  0170  0827               	movf	___flmul@b+1,w
  3091  0171  00AE               	movwf	??___flmul
  3092  0172  082E               	movf	??___flmul,w
  3093  0173  00F2               	movwf	__Umul8_16@multiplicand
  3094  0174  082A               	movf	___flmul@a,w
  3095  0175  120A  158A  24D8  120A  118A  	fcall	__Umul8_16
  3096  017A  0873               	movf	?__Umul8_16+1,w
  3097  017B  1283               	bcf	3,5	;RP0=0, select bank0
  3098  017C  1303               	bcf	3,6	;RP1=0, select bank0
  3099  017D  00BF               	movwf	___flmul@temp+1
  3100  017E  0872               	movf	?__Umul8_16,w
  3101  017F  00BE               	movwf	___flmul@temp
  3102  0180                     l2219:
  3103  0180  083E               	movf	___flmul@temp,w
  3104  0181  00AE               	movwf	??___flmul
  3105  0182  083F               	movf	___flmul@temp+1,w
  3106  0183  00AF               	movwf	??___flmul+1
  3107  0184  01B0               	clrf	??___flmul+2
  3108  0185  01B1               	clrf	??___flmul+3
  3109  0186  082E               	movf	??___flmul,w
  3110  0187  07B5               	addwf	___flmul@grs,f
  3111  0188  082F               	movf	??___flmul+1,w
  3112  0189  1103               	clrz
  3113  018A  1803               	skipnc
  3114  018B  3E01               	addlw	1
  3115  018C  1903               	skipnz
  3116  018D  298F               	goto	u2911
  3117  018E  07B6               	addwf	___flmul@grs+1,f
  3118  018F                     u2911:
  3119  018F  0830               	movf	??___flmul+2,w
  3120  0190  1103               	clrz
  3121  0191  1803               	skipnc
  3122  0192  3E01               	addlw	1
  3123  0193  1903               	skipnz
  3124  0194  2996               	goto	u2912
  3125  0195  07B7               	addwf	___flmul@grs+2,f
  3126  0196                     u2912:
  3127  0196  0831               	movf	??___flmul+3,w
  3128  0197  1103               	clrz
  3129  0198  1803               	skipnc
  3130  0199  3E01               	addlw	1
  3131  019A  1903               	skipnz
  3132  019B  299D               	goto	u2913
  3133  019C  07B8               	addwf	___flmul@grs+3,f
  3134  019D                     u2913:
  3135  019D                     l2221:
  3136  019D  0826               	movf	___flmul@b,w
  3137  019E  00AE               	movwf	??___flmul
  3138  019F  082E               	movf	??___flmul,w
  3139  01A0  00F2               	movwf	__Umul8_16@multiplicand
  3140  01A1  082B               	movf	___flmul@a+1,w
  3141  01A2  120A  158A  24D8  120A  118A  	fcall	__Umul8_16
  3142  01A7  0873               	movf	?__Umul8_16+1,w
  3143  01A8  1283               	bcf	3,5	;RP0=0, select bank0
  3144  01A9  1303               	bcf	3,6	;RP1=0, select bank0
  3145  01AA  00BF               	movwf	___flmul@temp+1
  3146  01AB  0872               	movf	?__Umul8_16,w
  3147  01AC  00BE               	movwf	___flmul@temp
  3148  01AD                     l2223:
  3149  01AD  083E               	movf	___flmul@temp,w
  3150  01AE  00AE               	movwf	??___flmul
  3151  01AF  083F               	movf	___flmul@temp+1,w
  3152  01B0  00AF               	movwf	??___flmul+1
  3153  01B1  01B0               	clrf	??___flmul+2
  3154  01B2  01B1               	clrf	??___flmul+3
  3155  01B3  082E               	movf	??___flmul,w
  3156  01B4  07B5               	addwf	___flmul@grs,f
  3157  01B5  082F               	movf	??___flmul+1,w
  3158  01B6  1103               	clrz
  3159  01B7  1803               	skipnc
  3160  01B8  3E01               	addlw	1
  3161  01B9  1903               	skipnz
  3162  01BA  29BC               	goto	u2921
  3163  01BB  07B6               	addwf	___flmul@grs+1,f
  3164  01BC                     u2921:
  3165  01BC  0830               	movf	??___flmul+2,w
  3166  01BD  1103               	clrz
  3167  01BE  1803               	skipnc
  3168  01BF  3E01               	addlw	1
  3169  01C0  1903               	skipnz
  3170  01C1  29C3               	goto	u2922
  3171  01C2  07B7               	addwf	___flmul@grs+2,f
  3172  01C3                     u2922:
  3173  01C3  0831               	movf	??___flmul+3,w
  3174  01C4  1103               	clrz
  3175  01C5  1803               	skipnc
  3176  01C6  3E01               	addlw	1
  3177  01C7  1903               	skipnz
  3178  01C8  29CA               	goto	u2923
  3179  01C9  07B8               	addwf	___flmul@grs+3,f
  3180  01CA                     u2923:
  3181  01CA                     l2225:
  3182  01CA  3008               	movlw	8
  3183  01CB  00AE               	movwf	??___flmul
  3184  01CC                     u2935:
  3185  01CC  1003               	clrc
  3186  01CD  0DB5               	rlf	___flmul@grs,f
  3187  01CE  0DB6               	rlf	___flmul@grs+1,f
  3188  01CF  0DB7               	rlf	___flmul@grs+2,f
  3189  01D0  0DB8               	rlf	___flmul@grs+3,f
  3190  01D1  0BAE               	decfsz	??___flmul,f
  3191  01D2  29CC               	goto	u2935
  3192  01D3  0826               	movf	___flmul@b,w
  3193  01D4  00AE               	movwf	??___flmul
  3194  01D5  082E               	movf	??___flmul,w
  3195  01D6  00F2               	movwf	__Umul8_16@multiplicand
  3196  01D7  082A               	movf	___flmul@a,w
  3197  01D8  120A  158A  24D8  120A  118A  	fcall	__Umul8_16
  3198  01DD  0873               	movf	?__Umul8_16+1,w
  3199  01DE  1283               	bcf	3,5	;RP0=0, select bank0
  3200  01DF  1303               	bcf	3,6	;RP1=0, select bank0
  3201  01E0  00BF               	movwf	___flmul@temp+1
  3202  01E1  0872               	movf	?__Umul8_16,w
  3203  01E2  00BE               	movwf	___flmul@temp
  3204  01E3                     l2227:
  3205  01E3  083E               	movf	___flmul@temp,w
  3206  01E4  00AE               	movwf	??___flmul
  3207  01E5  083F               	movf	___flmul@temp+1,w
  3208  01E6  00AF               	movwf	??___flmul+1
  3209  01E7  01B0               	clrf	??___flmul+2
  3210  01E8  01B1               	clrf	??___flmul+3
  3211  01E9  082E               	movf	??___flmul,w
  3212  01EA  07B5               	addwf	___flmul@grs,f
  3213  01EB  082F               	movf	??___flmul+1,w
  3214  01EC  1103               	clrz
  3215  01ED  1803               	skipnc
  3216  01EE  3E01               	addlw	1
  3217  01EF  1903               	skipnz
  3218  01F0  29F2               	goto	u2941
  3219  01F1  07B6               	addwf	___flmul@grs+1,f
  3220  01F2                     u2941:
  3221  01F2  0830               	movf	??___flmul+2,w
  3222  01F3  1103               	clrz
  3223  01F4  1803               	skipnc
  3224  01F5  3E01               	addlw	1
  3225  01F6  1903               	skipnz
  3226  01F7  29F9               	goto	u2942
  3227  01F8  07B7               	addwf	___flmul@grs+2,f
  3228  01F9                     u2942:
  3229  01F9  0831               	movf	??___flmul+3,w
  3230  01FA  1103               	clrz
  3231  01FB  1803               	skipnc
  3232  01FC  3E01               	addlw	1
  3233  01FD  1903               	skipnz
  3234  01FE  2A00               	goto	u2943
  3235  01FF  07B8               	addwf	___flmul@grs+3,f
  3236  0200                     u2943:
  3237  0200                     l2229:
  3238  0200  0827               	movf	___flmul@b+1,w
  3239  0201  00AE               	movwf	??___flmul
  3240  0202  082E               	movf	??___flmul,w
  3241  0203  00F2               	movwf	__Umul8_16@multiplicand
  3242  0204  082C               	movf	___flmul@a+2,w
  3243  0205  120A  158A  24D8  120A  118A  	fcall	__Umul8_16
  3244  020A  0873               	movf	?__Umul8_16+1,w
  3245  020B  1283               	bcf	3,5	;RP0=0, select bank0
  3246  020C  1303               	bcf	3,6	;RP1=0, select bank0
  3247  020D  00BF               	movwf	___flmul@temp+1
  3248  020E  0872               	movf	?__Umul8_16,w
  3249  020F  00BE               	movwf	___flmul@temp
  3250  0210  083E               	movf	___flmul@temp,w
  3251  0211  00AE               	movwf	??___flmul
  3252  0212  083F               	movf	___flmul@temp+1,w
  3253  0213  00AF               	movwf	??___flmul+1
  3254  0214  01B0               	clrf	??___flmul+2
  3255  0215  01B1               	clrf	??___flmul+3
  3256  0216  082E               	movf	??___flmul,w
  3257  0217  07BA               	addwf	___flmul@prod,f
  3258  0218  082F               	movf	??___flmul+1,w
  3259  0219  1103               	clrz
  3260  021A  1803               	skipnc
  3261  021B  3E01               	addlw	1
  3262  021C  1903               	skipnz
  3263  021D  2A1F               	goto	u2951
  3264  021E  07BB               	addwf	___flmul@prod+1,f
  3265  021F                     u2951:
  3266  021F  0830               	movf	??___flmul+2,w
  3267  0220  1103               	clrz
  3268  0221  1803               	skipnc
  3269  0222  3E01               	addlw	1
  3270  0223  1903               	skipnz
  3271  0224  2A26               	goto	u2952
  3272  0225  07BC               	addwf	___flmul@prod+2,f
  3273  0226                     u2952:
  3274  0226  0831               	movf	??___flmul+3,w
  3275  0227  1103               	clrz
  3276  0228  1803               	skipnc
  3277  0229  3E01               	addlw	1
  3278  022A  1903               	skipnz
  3279  022B  2A2D               	goto	u2953
  3280  022C  07BD               	addwf	___flmul@prod+3,f
  3281  022D                     u2953:
  3282  022D                     l2231:
  3283  022D  0828               	movf	___flmul@b+2,w
  3284  022E  00AE               	movwf	??___flmul
  3285  022F  082E               	movf	??___flmul,w
  3286  0230  00F2               	movwf	__Umul8_16@multiplicand
  3287  0231  082B               	movf	___flmul@a+1,w
  3288  0232  120A  158A  24D8  120A  118A  	fcall	__Umul8_16
  3289  0237  0873               	movf	?__Umul8_16+1,w
  3290  0238  1283               	bcf	3,5	;RP0=0, select bank0
  3291  0239  1303               	bcf	3,6	;RP1=0, select bank0
  3292  023A  00BF               	movwf	___flmul@temp+1
  3293  023B  0872               	movf	?__Umul8_16,w
  3294  023C  00BE               	movwf	___flmul@temp
  3295  023D                     l2233:
  3296  023D  083E               	movf	___flmul@temp,w
  3297  023E  00AE               	movwf	??___flmul
  3298  023F  083F               	movf	___flmul@temp+1,w
  3299  0240  00AF               	movwf	??___flmul+1
  3300  0241  01B0               	clrf	??___flmul+2
  3301  0242  01B1               	clrf	??___flmul+3
  3302  0243  082E               	movf	??___flmul,w
  3303  0244  07BA               	addwf	___flmul@prod,f
  3304  0245  082F               	movf	??___flmul+1,w
  3305  0246  1103               	clrz
  3306  0247  1803               	skipnc
  3307  0248  3E01               	addlw	1
  3308  0249  1903               	skipnz
  3309  024A  2A4C               	goto	u2961
  3310  024B  07BB               	addwf	___flmul@prod+1,f
  3311  024C                     u2961:
  3312  024C  0830               	movf	??___flmul+2,w
  3313  024D  1103               	clrz
  3314  024E  1803               	skipnc
  3315  024F  3E01               	addlw	1
  3316  0250  1903               	skipnz
  3317  0251  2A53               	goto	u2962
  3318  0252  07BC               	addwf	___flmul@prod+2,f
  3319  0253                     u2962:
  3320  0253  0831               	movf	??___flmul+3,w
  3321  0254  1103               	clrz
  3322  0255  1803               	skipnc
  3323  0256  3E01               	addlw	1
  3324  0257  1903               	skipnz
  3325  0258  2A5A               	goto	u2963
  3326  0259  07BD               	addwf	___flmul@prod+3,f
  3327  025A                     u2963:
  3328  025A  0828               	movf	___flmul@b+2,w
  3329  025B  00AE               	movwf	??___flmul
  3330  025C  082E               	movf	??___flmul,w
  3331  025D  00F2               	movwf	__Umul8_16@multiplicand
  3332  025E  082C               	movf	___flmul@a+2,w
  3333  025F  120A  158A  24D8  120A  118A  	fcall	__Umul8_16
  3334  0264  0873               	movf	?__Umul8_16+1,w
  3335  0265  1283               	bcf	3,5	;RP0=0, select bank0
  3336  0266  1303               	bcf	3,6	;RP1=0, select bank0
  3337  0267  00BF               	movwf	___flmul@temp+1
  3338  0268  0872               	movf	?__Umul8_16,w
  3339  0269  00BE               	movwf	___flmul@temp
  3340  026A                     l2235:
  3341  026A  083E               	movf	___flmul@temp,w
  3342  026B  00AE               	movwf	??___flmul
  3343  026C  083F               	movf	___flmul@temp+1,w
  3344  026D  00AF               	movwf	??___flmul+1
  3345  026E  01B0               	clrf	??___flmul+2
  3346  026F  01B1               	clrf	??___flmul+3
  3347  0270  3008               	movlw	8
  3348  0271                     u2975:
  3349  0271  1003               	clrc
  3350  0272  0DAE               	rlf	??___flmul,f
  3351  0273  0DAF               	rlf	??___flmul+1,f
  3352  0274  0DB0               	rlf	??___flmul+2,f
  3353  0275  0DB1               	rlf	??___flmul+3,f
  3354  0276                     u2970:
  3355  0276  3EFF               	addlw	-1
  3356  0277  1D03               	skipz
  3357  0278  2A71               	goto	u2975
  3358  0279  082E               	movf	??___flmul,w
  3359  027A  07BA               	addwf	___flmul@prod,f
  3360  027B  082F               	movf	??___flmul+1,w
  3361  027C  1103               	clrz
  3362  027D  1803               	skipnc
  3363  027E  3E01               	addlw	1
  3364  027F  1903               	skipnz
  3365  0280  2A82               	goto	u2981
  3366  0281  07BB               	addwf	___flmul@prod+1,f
  3367  0282                     u2981:
  3368  0282  0830               	movf	??___flmul+2,w
  3369  0283  1103               	clrz
  3370  0284  1803               	skipnc
  3371  0285  3E01               	addlw	1
  3372  0286  1903               	skipnz
  3373  0287  2A89               	goto	u2982
  3374  0288  07BC               	addwf	___flmul@prod+2,f
  3375  0289                     u2982:
  3376  0289  0831               	movf	??___flmul+3,w
  3377  028A  1103               	clrz
  3378  028B  1803               	skipnc
  3379  028C  3E01               	addlw	1
  3380  028D  1903               	skipnz
  3381  028E  2A90               	goto	u2983
  3382  028F  07BD               	addwf	___flmul@prod+3,f
  3383  0290                     u2983:
  3384  0290                     l2237:
  3385  0290  0835               	movf	___flmul@grs,w
  3386  0291  00AE               	movwf	??___flmul
  3387  0292  0836               	movf	___flmul@grs+1,w
  3388  0293  00AF               	movwf	??___flmul+1
  3389  0294  0837               	movf	___flmul@grs+2,w
  3390  0295  00B0               	movwf	??___flmul+2
  3391  0296  0838               	movf	___flmul@grs+3,w
  3392  0297  00B1               	movwf	??___flmul+3
  3393  0298  3018               	movlw	24
  3394  0299                     u2995:
  3395  0299  1003               	clrc
  3396  029A  0CB1               	rrf	??___flmul+3,f
  3397  029B  0CB0               	rrf	??___flmul+2,f
  3398  029C  0CAF               	rrf	??___flmul+1,f
  3399  029D  0CAE               	rrf	??___flmul,f
  3400  029E                     u2990:
  3401  029E  3EFF               	addlw	-1
  3402  029F  1D03               	skipz
  3403  02A0  2A99               	goto	u2995
  3404  02A1  082E               	movf	??___flmul,w
  3405  02A2  07BA               	addwf	___flmul@prod,f
  3406  02A3  082F               	movf	??___flmul+1,w
  3407  02A4  1103               	clrz
  3408  02A5  1803               	skipnc
  3409  02A6  3E01               	addlw	1
  3410  02A7  1903               	skipnz
  3411  02A8  2AAA               	goto	u3001
  3412  02A9  07BB               	addwf	___flmul@prod+1,f
  3413  02AA                     u3001:
  3414  02AA  0830               	movf	??___flmul+2,w
  3415  02AB  1103               	clrz
  3416  02AC  1803               	skipnc
  3417  02AD  3E01               	addlw	1
  3418  02AE  1903               	skipnz
  3419  02AF  2AB1               	goto	u3002
  3420  02B0  07BC               	addwf	___flmul@prod+2,f
  3421  02B1                     u3002:
  3422  02B1  0831               	movf	??___flmul+3,w
  3423  02B2  1103               	clrz
  3424  02B3  1803               	skipnc
  3425  02B4  3E01               	addlw	1
  3426  02B5  1903               	skipnz
  3427  02B6  2AB8               	goto	u3003
  3428  02B7  07BD               	addwf	___flmul@prod+3,f
  3429  02B8                     u3003:
  3430  02B8                     l2239:
  3431  02B8  3008               	movlw	8
  3432  02B9  00AE               	movwf	??___flmul
  3433  02BA                     u3015:
  3434  02BA  1003               	clrc
  3435  02BB  0DB5               	rlf	___flmul@grs,f
  3436  02BC  0DB6               	rlf	___flmul@grs+1,f
  3437  02BD  0DB7               	rlf	___flmul@grs+2,f
  3438  02BE  0DB8               	rlf	___flmul@grs+3,f
  3439  02BF  0BAE               	decfsz	??___flmul,f
  3440  02C0  2ABA               	goto	u3015
  3441  02C1                     l2241:
  3442  02C1  0839               	movf	___flmul@bexp,w
  3443  02C2  0734               	addwf	___flmul@aexp,w
  3444  02C3  00AE               	movwf	??___flmul
  3445  02C4  01AF               	clrf	??___flmul+1
  3446  02C5  0DAF               	rlf	??___flmul+1,f
  3447  02C6  082E               	movf	??___flmul,w
  3448  02C7  3E82               	addlw	130
  3449  02C8  00BE               	movwf	___flmul@temp
  3450  02C9  082F               	movf	??___flmul+1,w
  3451  02CA  1803               	skipnc
  3452  02CB  3E01               	addlw	1
  3453  02CC  3EFF               	addlw	255
  3454  02CD  00BF               	movwf	___flmul@temp+1
  3455  02CE  2AEC               	goto	l2253
  3456  02CF                     l2243:
  3457  02CF  3001               	movlw	1
  3458  02D0  00AE               	movwf	??___flmul
  3459  02D1                     u3025:
  3460  02D1  1003               	clrc
  3461  02D2  0DBA               	rlf	___flmul@prod,f
  3462  02D3  0DBB               	rlf	___flmul@prod+1,f
  3463  02D4  0DBC               	rlf	___flmul@prod+2,f
  3464  02D5  0DBD               	rlf	___flmul@prod+3,f
  3465  02D6  0BAE               	decfsz	??___flmul,f
  3466  02D7  2AD1               	goto	u3025
  3467  02D8                     l2245:
  3468  02D8  1FB8               	btfss	___flmul@grs+3,7
  3469  02D9  2ADB               	goto	u3031
  3470  02DA  2ADC               	goto	u3030
  3471  02DB                     u3031:
  3472  02DB  2ADD               	goto	l2249
  3473  02DC                     u3030:
  3474  02DC                     l2247:
  3475  02DC  143A               	bsf	___flmul@prod,0
  3476  02DD                     l2249:
  3477  02DD  3001               	movlw	1
  3478  02DE  00AE               	movwf	??___flmul
  3479  02DF                     u3045:
  3480  02DF  1003               	clrc
  3481  02E0  0DB5               	rlf	___flmul@grs,f
  3482  02E1  0DB6               	rlf	___flmul@grs+1,f
  3483  02E2  0DB7               	rlf	___flmul@grs+2,f
  3484  02E3  0DB8               	rlf	___flmul@grs+3,f
  3485  02E4  0BAE               	decfsz	??___flmul,f
  3486  02E5  2ADF               	goto	u3045
  3487  02E6                     l2251:
  3488  02E6  30FF               	movlw	255
  3489  02E7  07BE               	addwf	___flmul@temp,f
  3490  02E8  1803               	skipnc
  3491  02E9  0ABF               	incf	___flmul@temp+1,f
  3492  02EA  30FF               	movlw	255
  3493  02EB  07BF               	addwf	___flmul@temp+1,f
  3494  02EC                     l2253:
  3495  02EC  1FBC               	btfss	___flmul@prod+2,7
  3496  02ED  2AEF               	goto	u3051
  3497  02EE  2AF0               	goto	u3050
  3498  02EF                     u3051:
  3499  02EF  2ACF               	goto	l2243
  3500  02F0                     u3050:
  3501  02F0                     l2255:
  3502  02F0  01B4               	clrf	___flmul@aexp
  3503  02F1                     l2257:
  3504  02F1  1FB8               	btfss	___flmul@grs+3,7
  3505  02F2  2AF4               	goto	u3061
  3506  02F3  2AF5               	goto	u3060
  3507  02F4                     u3061:
  3508  02F4  2B11               	goto	l2265
  3509  02F5                     u3060:
  3510  02F5                     l2259:
  3511  02F5  30FF               	movlw	255
  3512  02F6  0535               	andwf	___flmul@grs,w
  3513  02F7  00AE               	movwf	??___flmul
  3514  02F8  30FF               	movlw	255
  3515  02F9  0536               	andwf	___flmul@grs+1,w
  3516  02FA  00AF               	movwf	??___flmul+1
  3517  02FB  30FF               	movlw	255
  3518  02FC  0537               	andwf	___flmul@grs+2,w
  3519  02FD  00B0               	movwf	??___flmul+2
  3520  02FE  307F               	movlw	127
  3521  02FF  0538               	andwf	___flmul@grs+3,w
  3522  0300  00B1               	movwf	??___flmul+3
  3523  0301  0831               	movf	??___flmul+3,w
  3524  0302  0430               	iorwf	??___flmul+2,w
  3525  0303  042F               	iorwf	??___flmul+1,w
  3526  0304  042E               	iorwf	??___flmul,w
  3527  0305  1903               	skipnz
  3528  0306  2B08               	goto	u3071
  3529  0307  2B09               	goto	u3070
  3530  0308                     u3071:
  3531  0308  2B0C               	goto	l656
  3532  0309                     u3070:
  3533  0309                     l2261:
  3534  0309  01B4               	clrf	___flmul@aexp
  3535  030A  0AB4               	incf	___flmul@aexp,f
  3536  030B  2B11               	goto	l2265
  3537  030C                     l656:
  3538  030C  1C3A               	btfss	___flmul@prod,0
  3539  030D  2B0F               	goto	u3081
  3540  030E  2B10               	goto	u3080
  3541  030F                     u3081:
  3542  030F  2B11               	goto	l2265
  3543  0310                     u3080:
  3544  0310  2B09               	goto	l2261
  3545  0311                     l2265:
  3546  0311  0834               	movf	___flmul@aexp,w
  3547  0312  1903               	btfsc	3,2
  3548  0313  2B15               	goto	u3091
  3549  0314  2B16               	goto	u3090
  3550  0315                     u3091:
  3551  0315  2B47               	goto	l2275
  3552  0316                     u3090:
  3553  0316                     l2267:
  3554  0316  3001               	movlw	1
  3555  0317  07BA               	addwf	___flmul@prod,f
  3556  0318  3000               	movlw	0
  3557  0319  1803               	skipnc
  3558  031A  3001               	movlw	1
  3559  031B  07BB               	addwf	___flmul@prod+1,f
  3560  031C  3000               	movlw	0
  3561  031D  1803               	skipnc
  3562  031E  3001               	movlw	1
  3563  031F  07BC               	addwf	___flmul@prod+2,f
  3564  0320  3000               	movlw	0
  3565  0321  1803               	skipnc
  3566  0322  3001               	movlw	1
  3567  0323  07BD               	addwf	___flmul@prod+3,f
  3568  0324                     l2269:
  3569  0324  1C3D               	btfss	___flmul@prod+3,0
  3570  0325  2B27               	goto	u3101
  3571  0326  2B28               	goto	u3100
  3572  0327                     u3101:
  3573  0327  2B47               	goto	l2275
  3574  0328                     u3100:
  3575  0328                     l2271:
  3576  0328  083A               	movf	___flmul@prod,w
  3577  0329  00AE               	movwf	??___flmul
  3578  032A  083B               	movf	___flmul@prod+1,w
  3579  032B  00AF               	movwf	??___flmul+1
  3580  032C  083C               	movf	___flmul@prod+2,w
  3581  032D  00B0               	movwf	??___flmul+2
  3582  032E  083D               	movf	___flmul@prod+3,w
  3583  032F  00B1               	movwf	??___flmul+3
  3584  0330  3001               	movlw	1
  3585  0331  00B2               	movwf	??___flmul+4
  3586  0332                     u3115:
  3587  0332  0D31               	rlf	??___flmul+3,w
  3588  0333  0CB1               	rrf	??___flmul+3,f
  3589  0334  0CB0               	rrf	??___flmul+2,f
  3590  0335  0CAF               	rrf	??___flmul+1,f
  3591  0336  0CAE               	rrf	??___flmul,f
  3592  0337                     u3110:
  3593  0337  0BB2               	decfsz	??___flmul+4,f
  3594  0338  2B32               	goto	u3115
  3595  0339  0831               	movf	??___flmul+3,w
  3596  033A  00BD               	movwf	___flmul@prod+3
  3597  033B  0830               	movf	??___flmul+2,w
  3598  033C  00BC               	movwf	___flmul@prod+2
  3599  033D  082F               	movf	??___flmul+1,w
  3600  033E  00BB               	movwf	___flmul@prod+1
  3601  033F  082E               	movf	??___flmul,w
  3602  0340  00BA               	movwf	___flmul@prod
  3603  0341                     l2273:
  3604  0341  3001               	movlw	1
  3605  0342  07BE               	addwf	___flmul@temp,f
  3606  0343  1803               	skipnc
  3607  0344  0ABF               	incf	___flmul@temp+1,f
  3608  0345  3000               	movlw	0
  3609  0346  07BF               	addwf	___flmul@temp+1,f
  3610  0347                     l2275:
  3611  0347  083F               	movf	___flmul@temp+1,w
  3612  0348  3A80               	xorlw	128
  3613  0349  00FF               	movwf	btemp+1
  3614  034A  3080               	movlw	128
  3615  034B  027F               	subwf	btemp+1,w
  3616  034C  1D03               	skipz
  3617  034D  2B50               	goto	u3125
  3618  034E  30FF               	movlw	255
  3619  034F  023E               	subwf	___flmul@temp,w
  3620  0350                     u3125:
  3621  0350  1C03               	skipc
  3622  0351  2B53               	goto	u3121
  3623  0352  2B54               	goto	u3120
  3624  0353                     u3121:
  3625  0353  2B5F               	goto	l2279
  3626  0354                     u3120:
  3627  0354                     l2277:
  3628  0354  307F               	movlw	127
  3629  0355  1283               	bcf	3,5	;RP0=0, select bank0
  3630  0356  1303               	bcf	3,6	;RP1=0, select bank0
  3631  0357  00BD               	movwf	___flmul@prod+3
  3632  0358  3080               	movlw	128
  3633  0359  00BC               	movwf	___flmul@prod+2
  3634  035A  3000               	movlw	0
  3635  035B  00BB               	movwf	___flmul@prod+1
  3636  035C  3000               	movlw	0
  3637  035D  00BA               	movwf	___flmul@prod
  3638  035E  2B94               	goto	l662
  3639  035F                     l2279:
  3640  035F  1283               	bcf	3,5	;RP0=0, select bank0
  3641  0360  1303               	bcf	3,6	;RP1=0, select bank0
  3642  0361  083F               	movf	___flmul@temp+1,w
  3643  0362  3A80               	xorlw	128
  3644  0363  00FF               	movwf	btemp+1
  3645  0364  3080               	movlw	128
  3646  0365  027F               	subwf	btemp+1,w
  3647  0366  1D03               	skipz
  3648  0367  2B6A               	goto	u3135
  3649  0368  3001               	movlw	1
  3650  0369  023E               	subwf	___flmul@temp,w
  3651  036A                     u3135:
  3652  036A  1803               	skipnc
  3653  036B  2B6D               	goto	u3131
  3654  036C  2B6E               	goto	u3130
  3655  036D                     u3131:
  3656  036D  2B7A               	goto	l2285
  3657  036E                     u3130:
  3658  036E                     l2281:
  3659  036E  3000               	movlw	0
  3660  036F  1283               	bcf	3,5	;RP0=0, select bank0
  3661  0370  1303               	bcf	3,6	;RP1=0, select bank0
  3662  0371  00BD               	movwf	___flmul@prod+3
  3663  0372  3000               	movlw	0
  3664  0373  00BC               	movwf	___flmul@prod+2
  3665  0374  3000               	movlw	0
  3666  0375  00BB               	movwf	___flmul@prod+1
  3667  0376  3000               	movlw	0
  3668  0377  00BA               	movwf	___flmul@prod
  3669  0378                     l2283:
  3670  0378  01B3               	clrf	___flmul@sign
  3671  0379  2B94               	goto	l662
  3672  037A                     l2285:
  3673  037A  1283               	bcf	3,5	;RP0=0, select bank0
  3674  037B  1303               	bcf	3,6	;RP1=0, select bank0
  3675  037C  083E               	movf	___flmul@temp,w
  3676  037D  00AE               	movwf	??___flmul
  3677  037E  082E               	movf	??___flmul,w
  3678  037F  00B9               	movwf	___flmul@bexp
  3679  0380  30FF               	movlw	255
  3680  0381  05BA               	andwf	___flmul@prod,f
  3681  0382  30FF               	movlw	255
  3682  0383  05BB               	andwf	___flmul@prod+1,f
  3683  0384  307F               	movlw	127
  3684  0385  05BC               	andwf	___flmul@prod+2,f
  3685  0386  3000               	movlw	0
  3686  0387  05BD               	andwf	___flmul@prod+3,f
  3687  0388                     l2287:
  3688  0388  1C39               	btfss	___flmul@bexp,0
  3689  0389  2B8B               	goto	u3141
  3690  038A  2B8C               	goto	u3140
  3691  038B                     u3141:
  3692  038B  2B8D               	goto	l2291
  3693  038C                     u3140:
  3694  038C                     l2289:
  3695  038C  17BC               	bsf	___flmul@prod+2,7
  3696  038D                     l2291:
  3697  038D  0839               	movf	___flmul@bexp,w
  3698  038E  00AE               	movwf	??___flmul
  3699  038F  1003               	clrc
  3700  0390  0C2E               	rrf	??___flmul,w
  3701  0391  00AF               	movwf	??___flmul+1
  3702  0392  082F               	movf	??___flmul+1,w
  3703  0393  00BD               	movwf	___flmul@prod+3
  3704  0394                     l662:
  3705  0394  0833               	movf	___flmul@sign,w
  3706  0395  00AE               	movwf	??___flmul
  3707  0396  082E               	movf	??___flmul,w
  3708  0397  04BD               	iorwf	___flmul@prod+3,f
  3709  0398                     l2293:
  3710  0398  083D               	movf	___flmul@prod+3,w
  3711  0399  00A9               	movwf	?___flmul+3
  3712  039A  083C               	movf	___flmul@prod+2,w
  3713  039B  00A8               	movwf	?___flmul+2
  3714  039C  083B               	movf	___flmul@prod+1,w
  3715  039D  00A7               	movwf	?___flmul+1
  3716  039E  083A               	movf	___flmul@prod,w
  3717  039F  00A6               	movwf	?___flmul
  3718  03A0                     l650:
  3719  03A0  0008               	return
  3720  03A1                     __end_of___flmul:
  3721                           
  3722                           	psect	text14
  3723  0CD8                     __ptext14:	
  3724 ;; *************** function __Umul8_16 *****************
  3725 ;; Defined at:
  3726 ;;		line 4 in file "C:\Program Files\Microchip\xc8\v2.31\pic\sources\c90\common\Umul8_16.c"
  3727 ;; Parameters:    Size  Location     Type
  3728 ;;  multiplier      1    wreg     unsigned char 
  3729 ;;  multiplicand    1    2[COMMON] unsigned char 
  3730 ;; Auto vars:     Size  Location     Type
  3731 ;;  multiplier      1    4[BANK0 ] unsigned char 
  3732 ;;  word_mpld       2    2[BANK0 ] unsigned int 
  3733 ;;  product         2    0[BANK0 ] unsigned int 
  3734 ;; Return value:  Size  Location     Type
  3735 ;;                  2    2[COMMON] unsigned int 
  3736 ;; Registers used:
  3737 ;;		wreg, status,2, status,0
  3738 ;; Tracked objects:
  3739 ;;		On entry : 0/0
  3740 ;;		On exit  : 0/0
  3741 ;;		Unchanged: 0/0
  3742 ;; Data sizes:     COMMON   BANK0   BANK1   BANK3   BANK2
  3743 ;;      Params:         2       0       0       0       0
  3744 ;;      Locals:         0       5       0       0       0
  3745 ;;      Temps:          2       0       0       0       0
  3746 ;;      Totals:         4       5       0       0       0
  3747 ;;Total ram usage:        9 bytes
  3748 ;; Hardware stack levels used:    1
  3749 ;; Hardware stack levels required when called:    1
  3750 ;; This function calls:
  3751 ;;		Nothing
  3752 ;; This function is called by:
  3753 ;;		___flmul
  3754 ;; This function uses a non-reentrant model
  3755 ;;
  3756                           
  3757                           
  3758                           ;psect for function __Umul8_16
  3759  0CD8                     __Umul8_16:
  3760                           
  3761                           ;incstack = 0
  3762                           ; Regs used in __Umul8_16: [wreg+status,2+status,0]
  3763                           ;__Umul8_16@multiplier stored from wreg
  3764  0CD8  1283               	bcf	3,5	;RP0=0, select bank0
  3765  0CD9  1303               	bcf	3,6	;RP1=0, select bank0
  3766  0CDA  00A4               	movwf	__Umul8_16@multiplier
  3767  0CDB                     l2143:
  3768  0CDB  01A0               	clrf	__Umul8_16@product
  3769  0CDC  01A1               	clrf	__Umul8_16@product+1
  3770  0CDD                     l2145:
  3771  0CDD  0872               	movf	__Umul8_16@multiplicand,w
  3772  0CDE  00F4               	movwf	??__Umul8_16
  3773  0CDF  01F5               	clrf	??__Umul8_16+1
  3774  0CE0  0874               	movf	??__Umul8_16,w
  3775  0CE1  00A2               	movwf	__Umul8_16@word_mpld
  3776  0CE2  0875               	movf	??__Umul8_16+1,w
  3777  0CE3  00A3               	movwf	__Umul8_16@word_mpld+1
  3778  0CE4                     l2147:
  3779  0CE4  1C24               	btfss	__Umul8_16@multiplier,0
  3780  0CE5  2CE7               	goto	u2751
  3781  0CE6  2CE8               	goto	u2750
  3782  0CE7                     u2751:
  3783  0CE7  2CEE               	goto	l669
  3784  0CE8                     u2750:
  3785  0CE8                     l2149:
  3786  0CE8  0822               	movf	__Umul8_16@word_mpld,w
  3787  0CE9  07A0               	addwf	__Umul8_16@product,f
  3788  0CEA  1803               	skipnc
  3789  0CEB  0AA1               	incf	__Umul8_16@product+1,f
  3790  0CEC  0823               	movf	__Umul8_16@word_mpld+1,w
  3791  0CED  07A1               	addwf	__Umul8_16@product+1,f
  3792  0CEE                     l669:
  3793  0CEE  3001               	movlw	1
  3794  0CEF                     u2765:
  3795  0CEF  1003               	clrc
  3796  0CF0  0DA2               	rlf	__Umul8_16@word_mpld,f
  3797  0CF1  0DA3               	rlf	__Umul8_16@word_mpld+1,f
  3798  0CF2  3EFF               	addlw	-1
  3799  0CF3  1D03               	skipz
  3800  0CF4  2CEF               	goto	u2765
  3801  0CF5  1003               	clrc
  3802  0CF6  0CA4               	rrf	__Umul8_16@multiplier,f
  3803  0CF7                     l2151:
  3804  0CF7  0824               	movf	__Umul8_16@multiplier,w
  3805  0CF8  1D03               	btfss	3,2
  3806  0CF9  2CFB               	goto	u2771
  3807  0CFA  2CFC               	goto	u2770
  3808  0CFB                     u2771:
  3809  0CFB  2CE4               	goto	l2147
  3810  0CFC                     u2770:
  3811  0CFC                     l2153:
  3812  0CFC  0821               	movf	__Umul8_16@product+1,w
  3813  0CFD  00F3               	movwf	?__Umul8_16+1
  3814  0CFE  0820               	movf	__Umul8_16@product,w
  3815  0CFF  00F2               	movwf	?__Umul8_16
  3816  0D00                     l671:
  3817  0D00  0008               	return
  3818  0D01                     __end_of__Umul8_16:
  3819                           
  3820                           	psect	text15
  3821  03A1                     __ptext15:	
  3822 ;; *************** function ___fldiv *****************
  3823 ;; Defined at:
  3824 ;;		line 8 in file "C:\Program Files\Microchip\xc8\v2.31\pic\sources\c90\common\sprcdiv.c"
  3825 ;; Parameters:    Size  Location     Type
  3826 ;;  a               4    2[COMMON] unsigned int 
  3827 ;;  b               4    6[COMMON] unsigned int 
  3828 ;; Auto vars:     Size  Location     Type
  3829 ;;  grs             4   12[BANK0 ] unsigned long 
  3830 ;;  rem             4    5[BANK0 ] unsigned long 
  3831 ;;  new_exp         2   10[BANK0 ] int 
  3832 ;;  aexp            1   17[BANK0 ] unsigned char 
  3833 ;;  bexp            1   16[BANK0 ] unsigned char 
  3834 ;;  sign            1    9[BANK0 ] unsigned char 
  3835 ;; Return value:  Size  Location     Type
  3836 ;;                  4    2[COMMON] unsigned char 
  3837 ;; Registers used:
  3838 ;;		wreg, status,2, status,0, btemp+1
  3839 ;; Tracked objects:
  3840 ;;		On entry : 0/0
  3841 ;;		On exit  : 0/0
  3842 ;;		Unchanged: 0/0
  3843 ;; Data sizes:     COMMON   BANK0   BANK1   BANK3   BANK2
  3844 ;;      Params:         8       0       0       0       0
  3845 ;;      Locals:         0      13       0       0       0
  3846 ;;      Temps:          0       5       0       0       0
  3847 ;;      Totals:         8      18       0       0       0
  3848 ;;Total ram usage:       26 bytes
  3849 ;; Hardware stack levels used:    1
  3850 ;; Hardware stack levels required when called:    1
  3851 ;; This function calls:
  3852 ;;		Nothing
  3853 ;; This function is called by:
  3854 ;;		_getRealTemperature
  3855 ;; This function uses a non-reentrant model
  3856 ;;
  3857                           
  3858                           
  3859                           ;psect for function ___fldiv
  3860  03A1                     ___fldiv:
  3861  03A1                     l1539:	
  3862                           ;incstack = 0
  3863                           ; Regs used in ___fldiv: [wreg+status,2+status,0+btemp+1]
  3864                           
  3865  03A1  0879               	movf	___fldiv@b+3,w
  3866  03A2  3980               	andlw	128
  3867  03A3  1283               	bcf	3,5	;RP0=0, select bank0
  3868  03A4  1303               	bcf	3,6	;RP1=0, select bank0
  3869  03A5  00A0               	movwf	??___fldiv
  3870  03A6  0820               	movf	??___fldiv,w
  3871  03A7  00A9               	movwf	___fldiv@sign
  3872  03A8                     l1541:
  3873  03A8  0879               	movf	___fldiv@b+3,w
  3874  03A9  00A0               	movwf	??___fldiv
  3875  03AA  0720               	addwf	??___fldiv,w
  3876  03AB  00A1               	movwf	??___fldiv+1
  3877  03AC  0821               	movf	??___fldiv+1,w
  3878  03AD  00B0               	movwf	___fldiv@bexp
  3879  03AE                     l1543:
  3880  03AE  1FF8               	btfss	___fldiv@b+2,7
  3881  03AF  2BB1               	goto	u1531
  3882  03B0  2BB2               	goto	u1530
  3883  03B1                     u1531:
  3884  03B1  2BB3               	goto	l1547
  3885  03B2                     u1530:
  3886  03B2                     l1545:
  3887  03B2  1430               	bsf	___fldiv@bexp,0
  3888  03B3                     l1547:
  3889  03B3  0830               	movf	___fldiv@bexp,w
  3890  03B4  1903               	btfsc	3,2
  3891  03B5  2BB7               	goto	u1541
  3892  03B6  2BB8               	goto	u1540
  3893  03B7                     u1541:
  3894  03B7  2BC8               	goto	l1557
  3895  03B8                     u1540:
  3896  03B8                     l1549:
  3897  03B8  0A30               	incf	___fldiv@bexp,w
  3898  03B9  1D03               	btfss	3,2
  3899  03BA  2BBC               	goto	u1551
  3900  03BB  2BBD               	goto	u1550
  3901  03BC                     u1551:
  3902  03BC  2BC5               	goto	l1553
  3903  03BD                     u1550:
  3904  03BD                     l1551:
  3905  03BD  3000               	movlw	0
  3906  03BE  00F9               	movwf	___fldiv@b+3
  3907  03BF  3000               	movlw	0
  3908  03C0  00F8               	movwf	___fldiv@b+2
  3909  03C1  3000               	movlw	0
  3910  03C2  00F7               	movwf	___fldiv@b+1
  3911  03C3  3000               	movlw	0
  3912  03C4  00F6               	movwf	___fldiv@b
  3913  03C5                     l1553:
  3914  03C5  17F8               	bsf	___fldiv@b+2,7
  3915  03C6                     l1555:
  3916  03C6  01F9               	clrf	___fldiv@b+3
  3917  03C7  2BD0               	goto	l1559
  3918  03C8                     l1557:
  3919  03C8  3000               	movlw	0
  3920  03C9  00F9               	movwf	___fldiv@b+3
  3921  03CA  3000               	movlw	0
  3922  03CB  00F8               	movwf	___fldiv@b+2
  3923  03CC  3000               	movlw	0
  3924  03CD  00F7               	movwf	___fldiv@b+1
  3925  03CE  3000               	movlw	0
  3926  03CF  00F6               	movwf	___fldiv@b
  3927  03D0                     l1559:
  3928  03D0  0875               	movf	___fldiv@a+3,w
  3929  03D1  3980               	andlw	128
  3930  03D2  00A0               	movwf	??___fldiv
  3931  03D3  0820               	movf	??___fldiv,w
  3932  03D4  06A9               	xorwf	___fldiv@sign,f
  3933  03D5                     l1561:
  3934  03D5  0875               	movf	___fldiv@a+3,w
  3935  03D6  00A0               	movwf	??___fldiv
  3936  03D7  0720               	addwf	??___fldiv,w
  3937  03D8  00A1               	movwf	??___fldiv+1
  3938  03D9  0821               	movf	??___fldiv+1,w
  3939  03DA  00B1               	movwf	___fldiv@aexp
  3940  03DB                     l1563:
  3941  03DB  1FF4               	btfss	___fldiv@a+2,7
  3942  03DC  2BDE               	goto	u1561
  3943  03DD  2BDF               	goto	u1560
  3944  03DE                     u1561:
  3945  03DE  2BE0               	goto	l1567
  3946  03DF                     u1560:
  3947  03DF                     l1565:
  3948  03DF  1431               	bsf	___fldiv@aexp,0
  3949  03E0                     l1567:
  3950  03E0  0831               	movf	___fldiv@aexp,w
  3951  03E1  1903               	btfsc	3,2
  3952  03E2  2BE4               	goto	u1571
  3953  03E3  2BE5               	goto	u1570
  3954  03E4                     u1571:
  3955  03E4  2BF5               	goto	l1577
  3956  03E5                     u1570:
  3957  03E5                     l1569:
  3958  03E5  0A31               	incf	___fldiv@aexp,w
  3959  03E6  1D03               	btfss	3,2
  3960  03E7  2BE9               	goto	u1581
  3961  03E8  2BEA               	goto	u1580
  3962  03E9                     u1581:
  3963  03E9  2BF2               	goto	l1573
  3964  03EA                     u1580:
  3965  03EA                     l1571:
  3966  03EA  3000               	movlw	0
  3967  03EB  00F5               	movwf	___fldiv@a+3
  3968  03EC  3000               	movlw	0
  3969  03ED  00F4               	movwf	___fldiv@a+2
  3970  03EE  3000               	movlw	0
  3971  03EF  00F3               	movwf	___fldiv@a+1
  3972  03F0  3000               	movlw	0
  3973  03F1  00F2               	movwf	___fldiv@a
  3974  03F2                     l1573:
  3975  03F2  17F4               	bsf	___fldiv@a+2,7
  3976  03F3                     l1575:
  3977  03F3  01F5               	clrf	___fldiv@a+3
  3978  03F4  2BFD               	goto	l610
  3979  03F5                     l1577:
  3980  03F5  3000               	movlw	0
  3981  03F6  00F5               	movwf	___fldiv@a+3
  3982  03F7  3000               	movlw	0
  3983  03F8  00F4               	movwf	___fldiv@a+2
  3984  03F9  3000               	movlw	0
  3985  03FA  00F3               	movwf	___fldiv@a+1
  3986  03FB  3000               	movlw	0
  3987  03FC  00F2               	movwf	___fldiv@a
  3988  03FD                     l610:
  3989  03FD  0875               	movf	___fldiv@a+3,w
  3990  03FE  0474               	iorwf	___fldiv@a+2,w
  3991  03FF  0473               	iorwf	___fldiv@a+1,w
  3992  0400  0472               	iorwf	___fldiv@a,w
  3993  0401  1D03               	skipz
  3994  0402  2C04               	goto	u1591
  3995  0403  2C05               	goto	u1590
  3996  0404                     u1591:
  3997  0404  2C1E               	goto	l1587
  3998  0405                     u1590:
  3999  0405                     l1579:
  4000  0405  3000               	movlw	0
  4001  0406  00F9               	movwf	___fldiv@b+3
  4002  0407  3000               	movlw	0
  4003  0408  00F8               	movwf	___fldiv@b+2
  4004  0409  3000               	movlw	0
  4005  040A  00F7               	movwf	___fldiv@b+1
  4006  040B  3000               	movlw	0
  4007  040C  00F6               	movwf	___fldiv@b
  4008  040D  3080               	movlw	128
  4009  040E  04F8               	iorwf	___fldiv@b+2,f
  4010  040F  307F               	movlw	127
  4011  0410  04F9               	iorwf	___fldiv@b+3,f
  4012  0411                     l1581:
  4013  0411  0829               	movf	___fldiv@sign,w
  4014  0412  00A0               	movwf	??___fldiv
  4015  0413  0820               	movf	??___fldiv,w
  4016  0414  04F9               	iorwf	___fldiv@b+3,f
  4017  0415                     l1583:
  4018  0415  0879               	movf	___fldiv@b+3,w
  4019  0416  00F5               	movwf	?___fldiv+3
  4020  0417  0878               	movf	___fldiv@b+2,w
  4021  0418  00F4               	movwf	?___fldiv+2
  4022  0419  0877               	movf	___fldiv@b+1,w
  4023  041A  00F3               	movwf	?___fldiv+1
  4024  041B  0876               	movf	___fldiv@b,w
  4025  041C  00F2               	movwf	?___fldiv
  4026  041D  2D83               	goto	l612
  4027  041E                     l1587:
  4028  041E  0830               	movf	___fldiv@bexp,w
  4029  041F  1D03               	btfss	3,2
  4030  0420  2C22               	goto	u1601
  4031  0421  2C23               	goto	u1600
  4032  0422                     u1601:
  4033  0422  2C2C               	goto	l1593
  4034  0423                     u1600:
  4035  0423                     l1589:
  4036  0423  3000               	movlw	0
  4037  0424  00F5               	movwf	?___fldiv+3
  4038  0425  3000               	movlw	0
  4039  0426  00F4               	movwf	?___fldiv+2
  4040  0427  3000               	movlw	0
  4041  0428  00F3               	movwf	?___fldiv+1
  4042  0429  3000               	movlw	0
  4043  042A  00F2               	movwf	?___fldiv
  4044  042B  2D83               	goto	l612
  4045  042C                     l1593:
  4046  042C  0830               	movf	___fldiv@bexp,w
  4047  042D  00A0               	movwf	??___fldiv
  4048  042E  01A1               	clrf	??___fldiv+1
  4049  042F  0821               	movf	??___fldiv+1,w
  4050  0430  00A3               	movwf	??___fldiv+3
  4051  0431  0831               	movf	___fldiv@aexp,w
  4052  0432  0220               	subwf	??___fldiv,w
  4053  0433  00A2               	movwf	??___fldiv+2
  4054  0434  1C03               	skipc
  4055  0435  03A3               	decf	??___fldiv+3,f
  4056  0436  0822               	movf	??___fldiv+2,w
  4057  0437  3E7F               	addlw	127
  4058  0438  00AA               	movwf	___fldiv@new_exp
  4059  0439  0823               	movf	??___fldiv+3,w
  4060  043A  1803               	skipnc
  4061  043B  3E01               	addlw	1
  4062  043C  3E00               	addlw	0
  4063  043D  00AB               	movwf	___fldiv@new_exp+1
  4064  043E                     l1595:
  4065  043E  0879               	movf	___fldiv@b+3,w
  4066  043F  00A8               	movwf	___fldiv@rem+3
  4067  0440  0878               	movf	___fldiv@b+2,w
  4068  0441  00A7               	movwf	___fldiv@rem+2
  4069  0442  0877               	movf	___fldiv@b+1,w
  4070  0443  00A6               	movwf	___fldiv@rem+1
  4071  0444  0876               	movf	___fldiv@b,w
  4072  0445  00A5               	movwf	___fldiv@rem
  4073  0446                     l1597:
  4074  0446  3000               	movlw	0
  4075  0447  00F9               	movwf	___fldiv@b+3
  4076  0448  3000               	movlw	0
  4077  0449  00F8               	movwf	___fldiv@b+2
  4078  044A  3000               	movlw	0
  4079  044B  00F7               	movwf	___fldiv@b+1
  4080  044C  3000               	movlw	0
  4081  044D  00F6               	movwf	___fldiv@b
  4082  044E                     l1599:
  4083  044E  3000               	movlw	0
  4084  044F  00AF               	movwf	___fldiv@grs+3
  4085  0450  3000               	movlw	0
  4086  0451  00AE               	movwf	___fldiv@grs+2
  4087  0452  3000               	movlw	0
  4088  0453  00AD               	movwf	___fldiv@grs+1
  4089  0454  3000               	movlw	0
  4090  0455  00AC               	movwf	___fldiv@grs
  4091  0456                     l1601:
  4092  0456  01B1               	clrf	___fldiv@aexp
  4093  0457  2CA8               	goto	l1621
  4094  0458                     l1603:
  4095  0458  0831               	movf	___fldiv@aexp,w
  4096  0459  1903               	btfsc	3,2
  4097  045A  2C5C               	goto	u1611
  4098  045B  2C5D               	goto	u1610
  4099  045C                     u1611:
  4100  045C  2C7D               	goto	l1613
  4101  045D                     u1610:
  4102  045D                     l1605:
  4103  045D  3001               	movlw	1
  4104  045E  00A0               	movwf	??___fldiv
  4105  045F                     u1625:
  4106  045F  1003               	clrc
  4107  0460  0DA5               	rlf	___fldiv@rem,f
  4108  0461  0DA6               	rlf	___fldiv@rem+1,f
  4109  0462  0DA7               	rlf	___fldiv@rem+2,f
  4110  0463  0DA8               	rlf	___fldiv@rem+3,f
  4111  0464  0BA0               	decfsz	??___fldiv,f
  4112  0465  2C5F               	goto	u1625
  4113  0466  3001               	movlw	1
  4114  0467  00A0               	movwf	??___fldiv
  4115  0468                     u1635:
  4116  0468  1003               	clrc
  4117  0469  0DF6               	rlf	___fldiv@b,f
  4118  046A  0DF7               	rlf	___fldiv@b+1,f
  4119  046B  0DF8               	rlf	___fldiv@b+2,f
  4120  046C  0DF9               	rlf	___fldiv@b+3,f
  4121  046D  0BA0               	decfsz	??___fldiv,f
  4122  046E  2C68               	goto	u1635
  4123  046F                     l1607:
  4124  046F  1FAF               	btfss	___fldiv@grs+3,7
  4125  0470  2C72               	goto	u1641
  4126  0471  2C73               	goto	u1640
  4127  0472                     u1641:
  4128  0472  2C74               	goto	l1611
  4129  0473                     u1640:
  4130  0473                     l1609:
  4131  0473  1476               	bsf	___fldiv@b,0
  4132  0474                     l1611:
  4133  0474  3001               	movlw	1
  4134  0475  00A0               	movwf	??___fldiv
  4135  0476                     u1655:
  4136  0476  1003               	clrc
  4137  0477  0DAC               	rlf	___fldiv@grs,f
  4138  0478  0DAD               	rlf	___fldiv@grs+1,f
  4139  0479  0DAE               	rlf	___fldiv@grs+2,f
  4140  047A  0DAF               	rlf	___fldiv@grs+3,f
  4141  047B  0BA0               	decfsz	??___fldiv,f
  4142  047C  2C76               	goto	u1655
  4143  047D                     l1613:
  4144  047D  0875               	movf	___fldiv@a+3,w
  4145  047E  0228               	subwf	___fldiv@rem+3,w
  4146  047F  1D03               	skipz
  4147  0480  2C8B               	goto	u1665
  4148  0481  0874               	movf	___fldiv@a+2,w
  4149  0482  0227               	subwf	___fldiv@rem+2,w
  4150  0483  1D03               	skipz
  4151  0484  2C8B               	goto	u1665
  4152  0485  0873               	movf	___fldiv@a+1,w
  4153  0486  0226               	subwf	___fldiv@rem+1,w
  4154  0487  1D03               	skipz
  4155  0488  2C8B               	goto	u1665
  4156  0489  0872               	movf	___fldiv@a,w
  4157  048A  0225               	subwf	___fldiv@rem,w
  4158  048B                     u1665:
  4159  048B  1C03               	skipc
  4160  048C  2C8E               	goto	u1661
  4161  048D  2C8F               	goto	u1660
  4162  048E                     u1661:
  4163  048E  2CA4               	goto	l1619
  4164  048F                     u1660:
  4165  048F                     l1615:
  4166  048F  172F               	bsf	___fldiv@grs+3,6
  4167  0490                     l1617:
  4168  0490  0872               	movf	___fldiv@a,w
  4169  0491  02A5               	subwf	___fldiv@rem,f
  4170  0492  0873               	movf	___fldiv@a+1,w
  4171  0493  1C03               	skipc
  4172  0494  0F73               	incfsz	___fldiv@a+1,w
  4173  0495  2C97               	goto	u1675
  4174  0496  2C98               	goto	u1676
  4175  0497                     u1675:
  4176  0497  02A6               	subwf	___fldiv@rem+1,f
  4177  0498                     u1676:
  4178  0498  0874               	movf	___fldiv@a+2,w
  4179  0499  1C03               	skipc
  4180  049A  0F74               	incfsz	___fldiv@a+2,w
  4181  049B  2C9D               	goto	u1677
  4182  049C  2C9E               	goto	u1678
  4183  049D                     u1677:
  4184  049D  02A7               	subwf	___fldiv@rem+2,f
  4185  049E                     u1678:
  4186  049E  0875               	movf	___fldiv@a+3,w
  4187  049F  1C03               	skipc
  4188  04A0  0F75               	incfsz	___fldiv@a+3,w
  4189  04A1  2CA3               	goto	u1679
  4190  04A2  2CA4               	goto	u1670
  4191  04A3                     u1679:
  4192  04A3  02A8               	subwf	___fldiv@rem+3,f
  4193  04A4                     u1670:
  4194  04A4                     l1619:
  4195  04A4  3001               	movlw	1
  4196  04A5  00A0               	movwf	??___fldiv
  4197  04A6  0820               	movf	??___fldiv,w
  4198  04A7  07B1               	addwf	___fldiv@aexp,f
  4199  04A8                     l1621:
  4200  04A8  301A               	movlw	26
  4201  04A9  0231               	subwf	___fldiv@aexp,w
  4202  04AA  1C03               	skipc
  4203  04AB  2CAD               	goto	u1681
  4204  04AC  2CAE               	goto	u1680
  4205  04AD                     u1681:
  4206  04AD  2C58               	goto	l1603
  4207  04AE                     u1680:
  4208  04AE                     l1623:
  4209  04AE  0828               	movf	___fldiv@rem+3,w
  4210  04AF  0427               	iorwf	___fldiv@rem+2,w
  4211  04B0  0426               	iorwf	___fldiv@rem+1,w
  4212  04B1  0425               	iorwf	___fldiv@rem,w
  4213  04B2  1903               	skipnz
  4214  04B3  2CB5               	goto	u1691
  4215  04B4  2CB6               	goto	u1690
  4216  04B5                     u1691:
  4217  04B5  2CD5               	goto	l1637
  4218  04B6                     u1690:
  4219  04B6                     l1625:
  4220  04B6  142C               	bsf	___fldiv@grs,0
  4221  04B7  2CD5               	goto	l1637
  4222  04B8                     l1627:
  4223  04B8  3001               	movlw	1
  4224  04B9  00A0               	movwf	??___fldiv
  4225  04BA                     u1705:
  4226  04BA  1003               	clrc
  4227  04BB  0DF6               	rlf	___fldiv@b,f
  4228  04BC  0DF7               	rlf	___fldiv@b+1,f
  4229  04BD  0DF8               	rlf	___fldiv@b+2,f
  4230  04BE  0DF9               	rlf	___fldiv@b+3,f
  4231  04BF  0BA0               	decfsz	??___fldiv,f
  4232  04C0  2CBA               	goto	u1705
  4233  04C1                     l1629:
  4234  04C1  1FAF               	btfss	___fldiv@grs+3,7
  4235  04C2  2CC4               	goto	u1711
  4236  04C3  2CC5               	goto	u1710
  4237  04C4                     u1711:
  4238  04C4  2CC6               	goto	l1633
  4239  04C5                     u1710:
  4240  04C5                     l1631:
  4241  04C5  1476               	bsf	___fldiv@b,0
  4242  04C6                     l1633:
  4243  04C6  3001               	movlw	1
  4244  04C7  00A0               	movwf	??___fldiv
  4245  04C8                     u1725:
  4246  04C8  1003               	clrc
  4247  04C9  0DAC               	rlf	___fldiv@grs,f
  4248  04CA  0DAD               	rlf	___fldiv@grs+1,f
  4249  04CB  0DAE               	rlf	___fldiv@grs+2,f
  4250  04CC  0DAF               	rlf	___fldiv@grs+3,f
  4251  04CD  0BA0               	decfsz	??___fldiv,f
  4252  04CE  2CC8               	goto	u1725
  4253  04CF                     l1635:
  4254  04CF  30FF               	movlw	255
  4255  04D0  07AA               	addwf	___fldiv@new_exp,f
  4256  04D1  1803               	skipnc
  4257  04D2  0AAB               	incf	___fldiv@new_exp+1,f
  4258  04D3  30FF               	movlw	255
  4259  04D4  07AB               	addwf	___fldiv@new_exp+1,f
  4260  04D5                     l1637:
  4261  04D5  1FF8               	btfss	___fldiv@b+2,7
  4262  04D6  2CD8               	goto	u1731
  4263  04D7  2CD9               	goto	u1730
  4264  04D8                     u1731:
  4265  04D8  2CB8               	goto	l1627
  4266  04D9                     u1730:
  4267  04D9                     l1639:
  4268  04D9  01B1               	clrf	___fldiv@aexp
  4269  04DA                     l1641:
  4270  04DA  1FAF               	btfss	___fldiv@grs+3,7
  4271  04DB  2CDD               	goto	u1741
  4272  04DC  2CDE               	goto	u1740
  4273  04DD                     u1741:
  4274  04DD  2CFA               	goto	l1649
  4275  04DE                     u1740:
  4276  04DE                     l1643:
  4277  04DE  30FF               	movlw	255
  4278  04DF  052C               	andwf	___fldiv@grs,w
  4279  04E0  00A0               	movwf	??___fldiv
  4280  04E1  30FF               	movlw	255
  4281  04E2  052D               	andwf	___fldiv@grs+1,w
  4282  04E3  00A1               	movwf	??___fldiv+1
  4283  04E4  30FF               	movlw	255
  4284  04E5  052E               	andwf	___fldiv@grs+2,w
  4285  04E6  00A2               	movwf	??___fldiv+2
  4286  04E7  307F               	movlw	127
  4287  04E8  052F               	andwf	___fldiv@grs+3,w
  4288  04E9  00A3               	movwf	??___fldiv+3
  4289  04EA  0823               	movf	??___fldiv+3,w
  4290  04EB  0422               	iorwf	??___fldiv+2,w
  4291  04EC  0421               	iorwf	??___fldiv+1,w
  4292  04ED  0420               	iorwf	??___fldiv,w
  4293  04EE  1903               	skipnz
  4294  04EF  2CF1               	goto	u1751
  4295  04F0  2CF2               	goto	u1750
  4296  04F1                     u1751:
  4297  04F1  2CF5               	goto	l626
  4298  04F2                     u1750:
  4299  04F2                     l1645:
  4300  04F2  01B1               	clrf	___fldiv@aexp
  4301  04F3  0AB1               	incf	___fldiv@aexp,f
  4302  04F4  2CFA               	goto	l1649
  4303  04F5                     l626:
  4304  04F5  1C76               	btfss	___fldiv@b,0
  4305  04F6  2CF8               	goto	u1761
  4306  04F7  2CF9               	goto	u1760
  4307  04F8                     u1761:
  4308  04F8  2CFA               	goto	l1649
  4309  04F9                     u1760:
  4310  04F9  2CF2               	goto	l1645
  4311  04FA                     l1649:
  4312  04FA  0831               	movf	___fldiv@aexp,w
  4313  04FB  1903               	btfsc	3,2
  4314  04FC  2CFE               	goto	u1771
  4315  04FD  2CFF               	goto	u1770
  4316  04FE                     u1771:
  4317  04FE  2D30               	goto	l1659
  4318  04FF                     u1770:
  4319  04FF                     l1651:
  4320  04FF  3001               	movlw	1
  4321  0500  07F6               	addwf	___fldiv@b,f
  4322  0501  3000               	movlw	0
  4323  0502  1803               	skipnc
  4324  0503  3001               	movlw	1
  4325  0504  07F7               	addwf	___fldiv@b+1,f
  4326  0505  3000               	movlw	0
  4327  0506  1803               	skipnc
  4328  0507  3001               	movlw	1
  4329  0508  07F8               	addwf	___fldiv@b+2,f
  4330  0509  3000               	movlw	0
  4331  050A  1803               	skipnc
  4332  050B  3001               	movlw	1
  4333  050C  07F9               	addwf	___fldiv@b+3,f
  4334  050D                     l1653:
  4335  050D  1C79               	btfss	___fldiv@b+3,0
  4336  050E  2D10               	goto	u1781
  4337  050F  2D11               	goto	u1780
  4338  0510                     u1781:
  4339  0510  2D30               	goto	l1659
  4340  0511                     u1780:
  4341  0511                     l1655:
  4342  0511  0876               	movf	___fldiv@b,w
  4343  0512  00A0               	movwf	??___fldiv
  4344  0513  0877               	movf	___fldiv@b+1,w
  4345  0514  00A1               	movwf	??___fldiv+1
  4346  0515  0878               	movf	___fldiv@b+2,w
  4347  0516  00A2               	movwf	??___fldiv+2
  4348  0517  0879               	movf	___fldiv@b+3,w
  4349  0518  00A3               	movwf	??___fldiv+3
  4350  0519  3001               	movlw	1
  4351  051A  00A4               	movwf	??___fldiv+4
  4352  051B                     u1795:
  4353  051B  0D23               	rlf	??___fldiv+3,w
  4354  051C  0CA3               	rrf	??___fldiv+3,f
  4355  051D  0CA2               	rrf	??___fldiv+2,f
  4356  051E  0CA1               	rrf	??___fldiv+1,f
  4357  051F  0CA0               	rrf	??___fldiv,f
  4358  0520                     u1790:
  4359  0520  0BA4               	decfsz	??___fldiv+4,f
  4360  0521  2D1B               	goto	u1795
  4361  0522  0823               	movf	??___fldiv+3,w
  4362  0523  00F9               	movwf	___fldiv@b+3
  4363  0524  0822               	movf	??___fldiv+2,w
  4364  0525  00F8               	movwf	___fldiv@b+2
  4365  0526  0821               	movf	??___fldiv+1,w
  4366  0527  00F7               	movwf	___fldiv@b+1
  4367  0528  0820               	movf	??___fldiv,w
  4368  0529  00F6               	movwf	___fldiv@b
  4369  052A                     l1657:
  4370  052A  3001               	movlw	1
  4371  052B  07AA               	addwf	___fldiv@new_exp,f
  4372  052C  1803               	skipnc
  4373  052D  0AAB               	incf	___fldiv@new_exp+1,f
  4374  052E  3000               	movlw	0
  4375  052F  07AB               	addwf	___fldiv@new_exp+1,f
  4376  0530                     l1659:
  4377  0530  082B               	movf	___fldiv@new_exp+1,w
  4378  0531  3A80               	xorlw	128
  4379  0532  00FF               	movwf	btemp+1
  4380  0533  3080               	movlw	128
  4381  0534  027F               	subwf	btemp+1,w
  4382  0535  1D03               	skipz
  4383  0536  2D39               	goto	u1805
  4384  0537  30FF               	movlw	255
  4385  0538  022A               	subwf	___fldiv@new_exp,w
  4386  0539                     u1805:
  4387  0539  1C03               	skipc
  4388  053A  2D3C               	goto	u1801
  4389  053B  2D3D               	goto	u1800
  4390  053C                     u1801:
  4391  053C  2D4B               	goto	l1663
  4392  053D                     u1800:
  4393  053D                     l1661:
  4394  053D  30FF               	movlw	255
  4395  053E  1283               	bcf	3,5	;RP0=0, select bank0
  4396  053F  1303               	bcf	3,6	;RP1=0, select bank0
  4397  0540  00AA               	movwf	___fldiv@new_exp
  4398  0541  3000               	movlw	0
  4399  0542  00AB               	movwf	___fldiv@new_exp+1
  4400  0543  3000               	movlw	0
  4401  0544  00F9               	movwf	___fldiv@b+3
  4402  0545  3000               	movlw	0
  4403  0546  00F8               	movwf	___fldiv@b+2
  4404  0547  3000               	movlw	0
  4405  0548  00F7               	movwf	___fldiv@b+1
  4406  0549  3000               	movlw	0
  4407  054A  00F6               	movwf	___fldiv@b
  4408  054B                     l1663:
  4409  054B  1283               	bcf	3,5	;RP0=0, select bank0
  4410  054C  1303               	bcf	3,6	;RP1=0, select bank0
  4411  054D  082B               	movf	___fldiv@new_exp+1,w
  4412  054E  3A80               	xorlw	128
  4413  054F  00FF               	movwf	btemp+1
  4414  0550  3080               	movlw	128
  4415  0551  027F               	subwf	btemp+1,w
  4416  0552  1D03               	skipz
  4417  0553  2D56               	goto	u1815
  4418  0554  3001               	movlw	1
  4419  0555  022A               	subwf	___fldiv@new_exp,w
  4420  0556                     u1815:
  4421  0556  1803               	skipnc
  4422  0557  2D59               	goto	u1811
  4423  0558  2D5A               	goto	u1810
  4424  0559                     u1811:
  4425  0559  2D67               	goto	l632
  4426  055A                     u1810:
  4427  055A                     l1665:
  4428  055A  1283               	bcf	3,5	;RP0=0, select bank0
  4429  055B  1303               	bcf	3,6	;RP1=0, select bank0
  4430  055C  01AA               	clrf	___fldiv@new_exp
  4431  055D  01AB               	clrf	___fldiv@new_exp+1
  4432  055E                     l1667:
  4433  055E  3000               	movlw	0
  4434  055F  00F9               	movwf	___fldiv@b+3
  4435  0560  3000               	movlw	0
  4436  0561  00F8               	movwf	___fldiv@b+2
  4437  0562  3000               	movlw	0
  4438  0563  00F7               	movwf	___fldiv@b+1
  4439  0564  3000               	movlw	0
  4440  0565  00F6               	movwf	___fldiv@b
  4441  0566                     l1669:
  4442  0566  01A9               	clrf	___fldiv@sign
  4443  0567                     l632:
  4444  0567  1283               	bcf	3,5	;RP0=0, select bank0
  4445  0568  1303               	bcf	3,6	;RP1=0, select bank0
  4446  0569  082A               	movf	___fldiv@new_exp,w
  4447  056A  00A0               	movwf	??___fldiv
  4448  056B  0820               	movf	??___fldiv,w
  4449  056C  00B0               	movwf	___fldiv@bexp
  4450  056D                     l1671:
  4451  056D  1C30               	btfss	___fldiv@bexp,0
  4452  056E  2D70               	goto	u1821
  4453  056F  2D71               	goto	u1820
  4454  0570                     u1821:
  4455  0570  2D73               	goto	l1675
  4456  0571                     u1820:
  4457  0571                     l1673:
  4458  0571  17F8               	bsf	___fldiv@b+2,7
  4459  0572  2D77               	goto	l634
  4460  0573                     l1675:
  4461  0573  307F               	movlw	127
  4462  0574  00A0               	movwf	??___fldiv
  4463  0575  0820               	movf	??___fldiv,w
  4464  0576  05F8               	andwf	___fldiv@b+2,f
  4465  0577                     l634:
  4466  0577  0830               	movf	___fldiv@bexp,w
  4467  0578  00A0               	movwf	??___fldiv
  4468  0579  1003               	clrc
  4469  057A  0C20               	rrf	??___fldiv,w
  4470  057B  00A1               	movwf	??___fldiv+1
  4471  057C  0821               	movf	??___fldiv+1,w
  4472  057D  00F9               	movwf	___fldiv@b+3
  4473  057E  0829               	movf	___fldiv@sign,w
  4474  057F  00A0               	movwf	??___fldiv
  4475  0580  0820               	movf	??___fldiv,w
  4476  0581  04F9               	iorwf	___fldiv@b+3,f
  4477  0582  2C15               	goto	l1583
  4478  0583                     l612:
  4479  0583  0008               	return
  4480  0584                     __end_of___fldiv:
  4481                           
  4482                           	psect	text16
  4483  0EC0                     __ptext16:	
  4484 ;; *************** function _checkKeypad *****************
  4485 ;; Defined at:
  4486 ;;		line 128 in file "main.c"
  4487 ;; Parameters:    Size  Location     Type
  4488 ;;		None
  4489 ;; Auto vars:     Size  Location     Type
  4490 ;;		None
  4491 ;; Return value:  Size  Location     Type
  4492 ;;                  1    wreg      void 
  4493 ;; Registers used:
  4494 ;;		wreg, fsr0l, fsr0h, status,2, status,0, btemp+1, pclath
  4495 ;; Tracked objects:
  4496 ;;		On entry : 0/0
  4497 ;;		On exit  : 0/0
  4498 ;;		Unchanged: 0/0
  4499 ;; Data sizes:     COMMON   BANK0   BANK1   BANK3   BANK2
  4500 ;;      Params:         0       0       0       0       0
  4501 ;;      Locals:         0       0       0       0       0
  4502 ;;      Temps:          2       0       0       0       0
  4503 ;;      Totals:         2       0       0       0       0
  4504 ;;Total ram usage:        2 bytes
  4505 ;; Hardware stack levels used:    2
  4506 ;; Hardware stack levels required when called:    1
  4507 ;; This function calls:
  4508 ;;		Nothing
  4509 ;; This function is called by:
  4510 ;;		_main
  4511 ;; This function uses a non-reentrant model
  4512 ;;
  4513                           
  4514                           
  4515                           ;psect for function _checkKeypad
  4516  0EC0                     _checkKeypad:
  4517  0EC0                     l1905:	
  4518                           ;incstack = 0
  4519                           ; Regs used in _checkKeypad: [wreg-fsr0h+status,2+status,0+btemp+1+pclath]
  4520                           
  4521                           
  4522                           ;main.c: 130:     PORTA = 0x00;
  4523  0EC0  1283               	bcf	3,5	;RP0=0, select bank0
  4524  0EC1  1303               	bcf	3,6	;RP1=0, select bank0
  4525  0EC2  0185               	clrf	5	;volatile
  4526  0EC3                     l1907:
  4527                           
  4528                           ;main.c: 131:     TRISD = 0xFF;
  4529  0EC3  30FF               	movlw	255
  4530  0EC4  1683               	bsf	3,5	;RP0=1, select bank1
  4531  0EC5  1303               	bcf	3,6	;RP1=0, select bank1
  4532  0EC6  0088               	movwf	8	;volatile
  4533  0EC7                     l1909:
  4534                           
  4535                           ;main.c: 132:     PORTD = 0xFF;
  4536  0EC7  30FF               	movlw	255
  4537  0EC8  1283               	bcf	3,5	;RP0=0, select bank0
  4538  0EC9  1303               	bcf	3,6	;RP1=0, select bank0
  4539  0ECA  0088               	movwf	8	;volatile
  4540                           
  4541                           ;main.c: 134:     for (colScan = 0; colScan < 3; colScan++)
  4542  0ECB  01FB               	clrf	_colScan
  4543  0ECC                     l1915:
  4544                           
  4545                           ;main.c: 135:     {;main.c: 136:         PORTB = PORTB | 0x07;
  4546  0ECC  1283               	bcf	3,5	;RP0=0, select bank0
  4547  0ECD  1303               	bcf	3,6	;RP1=0, select bank0
  4548  0ECE  0806               	movf	6,w	;volatile
  4549  0ECF  3807               	iorlw	7
  4550  0ED0  0086               	movwf	6	;volatile
  4551  0ED1                     l1917:
  4552                           
  4553                           ;main.c: 137:         PORTB &= colMask[colScan];
  4554  0ED1  087B               	movf	_colScan,w
  4555  0ED2  3E05               	addlw	low ((_colMask-__stringbase)| (0+32768))
  4556  0ED3  0084               	movwf	4
  4557  0ED4  120A  158A  2000  120A  158A  	fcall	stringdir
  4558  0ED9  00F2               	movwf	??_checkKeypad
  4559  0EDA  0872               	movf	??_checkKeypad,w
  4560  0EDB  0586               	andwf	6,f	;volatile
  4561  0EDC                     l1919:
  4562                           
  4563                           ;main.c: 138:         for (rowScan = 0; rowScan < 4; rowScan++)
  4564  0EDC  01FA               	clrf	_rowScan
  4565  0EDD                     l1925:
  4566                           
  4567                           ;main.c: 139:         {;main.c: 140:             if (!(PORTD & rowMask[rowScan]) || keyo
      +                          k)
  4568  0EDD  087A               	movf	_rowScan,w
  4569  0EDE  3E01               	addlw	low ((_rowMask-__stringbase)| (0+32768))
  4570  0EDF  0084               	movwf	4
  4571  0EE0  120A  158A  2000  120A  158A  	fcall	stringdir
  4572  0EE5  1283               	bcf	3,5	;RP0=0, select bank0
  4573  0EE6  1303               	bcf	3,6	;RP1=0, select bank0
  4574  0EE7  0508               	andwf	8,w	;volatile
  4575  0EE8  1903               	btfsc	3,2
  4576  0EE9  2EEB               	goto	u2341
  4577  0EEA  2EEC               	goto	u2340
  4578  0EEB                     u2341:
  4579  0EEB  2EF1               	goto	l133
  4580  0EEC                     u2340:
  4581  0EEC                     l1927:
  4582  0EEC  086B               	movf	_keyok,w
  4583  0EED  1903               	btfsc	3,2
  4584  0EEE  2EF0               	goto	u2351
  4585  0EEF  2EF1               	goto	u2350
  4586  0EF0                     u2351:
  4587  0EF0  2F41               	goto	l1949
  4588  0EF1                     u2350:
  4589  0EF1                     l133:
  4590                           
  4591                           ;main.c: 141:             {;main.c: 142:                 keyok = 1;
  4592  0EF1  01EB               	clrf	_keyok
  4593  0EF2  0AEB               	incf	_keyok,f
  4594  0EF3                     l1929:
  4595                           
  4596                           ;main.c: 144:                 if (!(PORTD & rowMask[rowScan]) && delayBtn > 1)
  4597  0EF3  087A               	movf	_rowScan,w
  4598  0EF4  3E01               	addlw	low ((_rowMask-__stringbase)| (0+32768))
  4599  0EF5  0084               	movwf	4
  4600  0EF6  120A  158A  2000  120A  158A  	fcall	stringdir
  4601  0EFB  0508               	andwf	8,w	;volatile
  4602  0EFC  1D03               	btfss	3,2
  4603  0EFD  2EFF               	goto	u2361
  4604  0EFE  2F00               	goto	u2360
  4605  0EFF                     u2361:
  4606  0EFF  2F41               	goto	l1949
  4607  0F00                     u2360:
  4608  0F00                     l1931:
  4609  0F00  1683               	bsf	3,5	;RP0=1, select bank1
  4610  0F01  1303               	bcf	3,6	;RP1=0, select bank1
  4611  0F02  0840               	movf	(_delayBtn+1)^(0+128),w
  4612  0F03  3A80               	xorlw	128
  4613  0F04  00FF               	movwf	btemp+1
  4614  0F05  3080               	movlw	128
  4615  0F06  027F               	subwf	btemp+1,w
  4616  0F07  1D03               	skipz
  4617  0F08  2F0B               	goto	u2375
  4618  0F09  3002               	movlw	2
  4619  0F0A  023F               	subwf	_delayBtn^(0+128),w
  4620  0F0B                     u2375:
  4621  0F0B  1C03               	skipc
  4622  0F0C  2F0E               	goto	u2371
  4623  0F0D  2F0F               	goto	u2370
  4624  0F0E                     u2371:
  4625  0F0E  2F41               	goto	l1949
  4626  0F0F                     u2370:
  4627  0F0F                     l1933:
  4628                           
  4629                           ;main.c: 145:                 {;main.c: 146:                     keypressed = rowScan +(
      +                          4*colScan);
  4630  0F0F  087B               	movf	_colScan,w
  4631  0F10  00F2               	movwf	??_checkKeypad
  4632  0F11  3002               	movlw	2
  4633  0F12                     u2385:
  4634  0F12  1003               	clrc
  4635  0F13  0DF2               	rlf	??_checkKeypad,f
  4636  0F14  3EFF               	addlw	-1
  4637  0F15  1D03               	skipz
  4638  0F16  2F12               	goto	u2385
  4639  0F17  087A               	movf	_rowScan,w
  4640  0F18  0772               	addwf	??_checkKeypad,w
  4641  0F19  00F3               	movwf	??_checkKeypad+1
  4642  0F1A  0873               	movf	??_checkKeypad+1,w
  4643  0F1B  1283               	bcf	3,5	;RP0=0, select bank0
  4644  0F1C  1303               	bcf	3,6	;RP1=0, select bank0
  4645  0F1D  00EC               	movwf	_keypressed
  4646  0F1E                     l1935:
  4647                           
  4648                           ;main.c: 147:                     keyok = 0;
  4649  0F1E  01EB               	clrf	_keyok
  4650  0F1F                     l1937:
  4651                           
  4652                           ;main.c: 148:                     delayBtn = 0;
  4653  0F1F  1683               	bsf	3,5	;RP0=1, select bank1
  4654  0F20  1303               	bcf	3,6	;RP1=0, select bank1
  4655  0F21  01BF               	clrf	_delayBtn^(0+128)
  4656  0F22  01C0               	clrf	(_delayBtn+1)^(0+128)
  4657                           
  4658                           ;main.c: 150:                     if(keypressed == 3)
  4659  0F23  3003               	movlw	3
  4660  0F24  1283               	bcf	3,5	;RP0=0, select bank0
  4661  0F25  1303               	bcf	3,6	;RP1=0, select bank0
  4662  0F26  066C               	xorwf	_keypressed,w
  4663  0F27  1D03               	btfss	3,2
  4664  0F28  2F2A               	goto	u2391
  4665  0F29  2F2B               	goto	u2390
  4666  0F2A                     u2391:
  4667  0F2A  2F34               	goto	l1943
  4668  0F2B                     u2390:
  4669  0F2B                     l1939:
  4670                           
  4671                           ;main.c: 151:                     {;main.c: 152:                         setpointTempera
      +                          ture++;
  4672  0F2B  3001               	movlw	1
  4673  0F2C  07ED               	addwf	_setpointTemperature,f
  4674  0F2D  1803               	skipnc
  4675  0F2E  0AEE               	incf	_setpointTemperature+1,f
  4676  0F2F  3000               	movlw	0
  4677  0F30  07EE               	addwf	_setpointTemperature+1,f
  4678  0F31                     l1941:
  4679                           
  4680                           ;main.c: 153:                         change = 1;
  4681  0F31  01EF               	clrf	_change
  4682  0F32  0AEF               	incf	_change,f
  4683                           
  4684                           ;main.c: 154:                     } else if(keypressed == 11)
  4685  0F33  2F41               	goto	l1949
  4686  0F34                     l1943:
  4687  0F34  300B               	movlw	11
  4688  0F35  066C               	xorwf	_keypressed,w
  4689  0F36  1D03               	btfss	3,2
  4690  0F37  2F39               	goto	u2401
  4691  0F38  2F3A               	goto	u2400
  4692  0F39                     u2401:
  4693  0F39  2F41               	goto	l134
  4694  0F3A                     u2400:
  4695  0F3A                     l1945:
  4696                           
  4697                           ;main.c: 155:                     {;main.c: 156:                         setpointTempera
      +                          ture--;
  4698  0F3A  30FF               	movlw	255
  4699  0F3B  07ED               	addwf	_setpointTemperature,f
  4700  0F3C  1803               	skipnc
  4701  0F3D  0AEE               	incf	_setpointTemperature+1,f
  4702  0F3E  30FF               	movlw	255
  4703  0F3F  07EE               	addwf	_setpointTemperature+1,f
  4704  0F40  2F31               	goto	l1941
  4705  0F41                     l134:	
  4706                           ;main.c: 159:                 }
  4707                           
  4708  0F41                     l1949:
  4709                           
  4710                           ;main.c: 161:         }
  4711  0F41  3001               	movlw	1
  4712  0F42  00F2               	movwf	??_checkKeypad
  4713  0F43  0872               	movf	??_checkKeypad,w
  4714  0F44  07FA               	addwf	_rowScan,f
  4715  0F45                     l1951:
  4716  0F45  3004               	movlw	4
  4717  0F46  027A               	subwf	_rowScan,w
  4718  0F47  1C03               	skipc
  4719  0F48  2F4A               	goto	u2411
  4720  0F49  2F4B               	goto	u2410
  4721  0F4A                     u2411:
  4722  0F4A  2EDD               	goto	l1925
  4723  0F4B                     u2410:
  4724  0F4B                     l1953:
  4725                           
  4726                           ;main.c: 162:     }
  4727  0F4B  3001               	movlw	1
  4728  0F4C  00F2               	movwf	??_checkKeypad
  4729  0F4D  0872               	movf	??_checkKeypad,w
  4730  0F4E  07FB               	addwf	_colScan,f
  4731  0F4F                     l1955:
  4732  0F4F  3003               	movlw	3
  4733  0F50  027B               	subwf	_colScan,w
  4734  0F51  1C03               	skipc
  4735  0F52  2F54               	goto	u2421
  4736  0F53  2F55               	goto	u2420
  4737  0F54                     u2421:
  4738  0F54  2ECC               	goto	l1915
  4739  0F55                     u2420:
  4740  0F55                     l138:
  4741  0F55  0008               	return
  4742  0F56                     __end_of_checkKeypad:
  4743                           
  4744                           	psect	text17
  4745  0C63                     __ptext17:	
  4746 ;; *************** function ___wmul *****************
  4747 ;; Defined at:
  4748 ;;		line 15 in file "C:\Program Files\Microchip\xc8\v2.31\pic\sources\c90\common\Umul16.c"
  4749 ;; Parameters:    Size  Location     Type
  4750 ;;  multiplier      2    2[COMMON] unsigned int 
  4751 ;;  multiplicand    2    4[COMMON] unsigned int 
  4752 ;; Auto vars:     Size  Location     Type
  4753 ;;  product         2    6[COMMON] unsigned int 
  4754 ;; Return value:  Size  Location     Type
  4755 ;;                  2    2[COMMON] unsigned int 
  4756 ;; Registers used:
  4757 ;;		wreg, status,2, status,0
  4758 ;; Tracked objects:
  4759 ;;		On entry : 0/0
  4760 ;;		On exit  : 0/0
  4761 ;;		Unchanged: 0/0
  4762 ;; Data sizes:     COMMON   BANK0   BANK1   BANK3   BANK2
  4763 ;;      Params:         4       0       0       0       0
  4764 ;;      Locals:         2       0       0       0       0
  4765 ;;      Temps:          0       0       0       0       0
  4766 ;;      Totals:         6       0       0       0       0
  4767 ;;Total ram usage:        6 bytes
  4768 ;; Hardware stack levels used:    1
  4769 ;; Hardware stack levels required when called:    1
  4770 ;; This function calls:
  4771 ;;		Nothing
  4772 ;; This function is called by:
  4773 ;;		_main
  4774 ;; This function uses a non-reentrant model
  4775 ;;
  4776                           
  4777                           
  4778                           ;psect for function ___wmul
  4779  0C63                     ___wmul:
  4780  0C63                     l1987:	
  4781                           ;incstack = 0
  4782                           ; Regs used in ___wmul: [wreg+status,2+status,0]
  4783                           
  4784  0C63  01F6               	clrf	___wmul@product
  4785  0C64  01F7               	clrf	___wmul@product+1
  4786  0C65                     l1989:
  4787  0C65  1C72               	btfss	___wmul@multiplier,0
  4788  0C66  2C68               	goto	u2451
  4789  0C67  2C69               	goto	u2450
  4790  0C68                     u2451:
  4791  0C68  2C6F               	goto	l261
  4792  0C69                     u2450:
  4793  0C69                     l1991:
  4794  0C69  0874               	movf	___wmul@multiplicand,w
  4795  0C6A  07F6               	addwf	___wmul@product,f
  4796  0C6B  1803               	skipnc
  4797  0C6C  0AF7               	incf	___wmul@product+1,f
  4798  0C6D  0875               	movf	___wmul@multiplicand+1,w
  4799  0C6E  07F7               	addwf	___wmul@product+1,f
  4800  0C6F                     l261:
  4801  0C6F  3001               	movlw	1
  4802  0C70                     u2465:
  4803  0C70  1003               	clrc
  4804  0C71  0DF4               	rlf	___wmul@multiplicand,f
  4805  0C72  0DF5               	rlf	___wmul@multiplicand+1,f
  4806  0C73  3EFF               	addlw	-1
  4807  0C74  1D03               	skipz
  4808  0C75  2C70               	goto	u2465
  4809  0C76                     l1993:
  4810  0C76  3001               	movlw	1
  4811  0C77                     u2475:
  4812  0C77  1003               	clrc
  4813  0C78  0CF3               	rrf	___wmul@multiplier+1,f
  4814  0C79  0CF2               	rrf	___wmul@multiplier,f
  4815  0C7A  3EFF               	addlw	-1
  4816  0C7B  1D03               	skipz
  4817  0C7C  2C77               	goto	u2475
  4818  0C7D                     l1995:
  4819  0C7D  0872               	movf	___wmul@multiplier,w
  4820  0C7E  0473               	iorwf	___wmul@multiplier+1,w
  4821  0C7F  1D03               	btfss	3,2
  4822  0C80  2C82               	goto	u2481
  4823  0C81  2C83               	goto	u2480
  4824  0C82                     u2481:
  4825  0C82  2C65               	goto	l1989
  4826  0C83                     u2480:
  4827  0C83                     l1997:
  4828  0C83  0877               	movf	___wmul@product+1,w
  4829  0C84  00F3               	movwf	?___wmul+1
  4830  0C85  0876               	movf	___wmul@product,w
  4831  0C86  00F2               	movwf	?___wmul
  4832  0C87                     l263:
  4833  0C87  0008               	return
  4834  0C88                     __end_of___wmul:
  4835                           
  4836                           	psect	text18
  4837  0D80                     __ptext18:	
  4838 ;; *************** function ___awmod *****************
  4839 ;; Defined at:
  4840 ;;		line 5 in file "C:\Program Files\Microchip\xc8\v2.31\pic\sources\c90\common\awmod.c"
  4841 ;; Parameters:    Size  Location     Type
  4842 ;;  divisor         2    4[BANK0 ] int 
  4843 ;;  dividend        2    6[BANK0 ] int 
  4844 ;; Auto vars:     Size  Location     Type
  4845 ;;  sign            1    9[COMMON] unsigned char 
  4846 ;;  counter         1    8[COMMON] unsigned char 
  4847 ;; Return value:  Size  Location     Type
  4848 ;;                  2    4[BANK0 ] int 
  4849 ;; Registers used:
  4850 ;;		wreg, status,2, status,0
  4851 ;; Tracked objects:
  4852 ;;		On entry : 0/0
  4853 ;;		On exit  : 0/0
  4854 ;;		Unchanged: 0/0
  4855 ;; Data sizes:     COMMON   BANK0   BANK1   BANK3   BANK2
  4856 ;;      Params:         0       4       0       0       0
  4857 ;;      Locals:         2       0       0       0       0
  4858 ;;      Temps:          1       0       0       0       0
  4859 ;;      Totals:         3       4       0       0       0
  4860 ;;Total ram usage:        7 bytes
  4861 ;; Hardware stack levels used:    1
  4862 ;; Hardware stack levels required when called:    1
  4863 ;; This function calls:
  4864 ;;		Nothing
  4865 ;; This function is called by:
  4866 ;;		_main
  4867 ;; This function uses a non-reentrant model
  4868 ;;
  4869                           
  4870                           
  4871                           ;psect for function ___awmod
  4872  0D80                     ___awmod:
  4873  0D80                     l2361:	
  4874                           ;incstack = 0
  4875                           ; Regs used in ___awmod: [wreg+status,2+status,0]
  4876                           
  4877  0D80  01F9               	clrf	___awmod@sign
  4878  0D81                     l2363:
  4879  0D81  1283               	bcf	3,5	;RP0=0, select bank0
  4880  0D82  1303               	bcf	3,6	;RP1=0, select bank0
  4881  0D83  1FA7               	btfss	___awmod@dividend+1,7
  4882  0D84  2D86               	goto	u3261
  4883  0D85  2D87               	goto	u3260
  4884  0D86                     u3261:
  4885  0D86  2D8E               	goto	l2369
  4886  0D87                     u3260:
  4887  0D87                     l2365:
  4888  0D87  09A6               	comf	___awmod@dividend,f
  4889  0D88  09A7               	comf	___awmod@dividend+1,f
  4890  0D89  0AA6               	incf	___awmod@dividend,f
  4891  0D8A  1903               	skipnz
  4892  0D8B  0AA7               	incf	___awmod@dividend+1,f
  4893  0D8C                     l2367:
  4894  0D8C  01F9               	clrf	___awmod@sign
  4895  0D8D  0AF9               	incf	___awmod@sign,f
  4896  0D8E                     l2369:
  4897  0D8E  1FA5               	btfss	___awmod@divisor+1,7
  4898  0D8F  2D91               	goto	u3271
  4899  0D90  2D92               	goto	u3270
  4900  0D91                     u3271:
  4901  0D91  2D97               	goto	l2373
  4902  0D92                     u3270:
  4903  0D92                     l2371:
  4904  0D92  09A4               	comf	___awmod@divisor,f
  4905  0D93  09A5               	comf	___awmod@divisor+1,f
  4906  0D94  0AA4               	incf	___awmod@divisor,f
  4907  0D95  1903               	skipnz
  4908  0D96  0AA5               	incf	___awmod@divisor+1,f
  4909  0D97                     l2373:
  4910  0D97  0824               	movf	___awmod@divisor,w
  4911  0D98  0425               	iorwf	___awmod@divisor+1,w
  4912  0D99  1903               	btfsc	3,2
  4913  0D9A  2D9C               	goto	u3281
  4914  0D9B  2D9D               	goto	u3280
  4915  0D9C                     u3281:
  4916  0D9C  2DCC               	goto	l2391
  4917  0D9D                     u3280:
  4918  0D9D                     l2375:
  4919  0D9D  01F8               	clrf	___awmod@counter
  4920  0D9E  0AF8               	incf	___awmod@counter,f
  4921  0D9F  2DAB               	goto	l2381
  4922  0DA0                     l2377:
  4923  0DA0  3001               	movlw	1
  4924  0DA1                     u3295:
  4925  0DA1  1003               	clrc
  4926  0DA2  0DA4               	rlf	___awmod@divisor,f
  4927  0DA3  0DA5               	rlf	___awmod@divisor+1,f
  4928  0DA4  3EFF               	addlw	-1
  4929  0DA5  1D03               	skipz
  4930  0DA6  2DA1               	goto	u3295
  4931  0DA7                     l2379:
  4932  0DA7  3001               	movlw	1
  4933  0DA8  00F7               	movwf	??___awmod
  4934  0DA9  0877               	movf	??___awmod,w
  4935  0DAA  07F8               	addwf	___awmod@counter,f
  4936  0DAB                     l2381:
  4937  0DAB  1FA5               	btfss	___awmod@divisor+1,7
  4938  0DAC  2DAE               	goto	u3301
  4939  0DAD  2DAF               	goto	u3300
  4940  0DAE                     u3301:
  4941  0DAE  2DA0               	goto	l2377
  4942  0DAF                     u3300:
  4943  0DAF                     l2383:
  4944  0DAF  0825               	movf	___awmod@divisor+1,w
  4945  0DB0  0227               	subwf	___awmod@dividend+1,w
  4946  0DB1  1D03               	skipz
  4947  0DB2  2DB5               	goto	u3315
  4948  0DB3  0824               	movf	___awmod@divisor,w
  4949  0DB4  0226               	subwf	___awmod@dividend,w
  4950  0DB5                     u3315:
  4951  0DB5  1C03               	skipc
  4952  0DB6  2DB8               	goto	u3311
  4953  0DB7  2DB9               	goto	u3310
  4954  0DB8                     u3311:
  4955  0DB8  2DBF               	goto	l2387
  4956  0DB9                     u3310:
  4957  0DB9                     l2385:
  4958  0DB9  0824               	movf	___awmod@divisor,w
  4959  0DBA  02A6               	subwf	___awmod@dividend,f
  4960  0DBB  0825               	movf	___awmod@divisor+1,w
  4961  0DBC  1C03               	skipc
  4962  0DBD  03A7               	decf	___awmod@dividend+1,f
  4963  0DBE  02A7               	subwf	___awmod@dividend+1,f
  4964  0DBF                     l2387:
  4965  0DBF  3001               	movlw	1
  4966  0DC0                     u3325:
  4967  0DC0  1003               	clrc
  4968  0DC1  0CA5               	rrf	___awmod@divisor+1,f
  4969  0DC2  0CA4               	rrf	___awmod@divisor,f
  4970  0DC3  3EFF               	addlw	-1
  4971  0DC4  1D03               	skipz
  4972  0DC5  2DC0               	goto	u3325
  4973  0DC6                     l2389:
  4974  0DC6  3001               	movlw	1
  4975  0DC7  02F8               	subwf	___awmod@counter,f
  4976  0DC8  1D03               	btfss	3,2
  4977  0DC9  2DCB               	goto	u3331
  4978  0DCA  2DCC               	goto	u3330
  4979  0DCB                     u3331:
  4980  0DCB  2DAF               	goto	l2383
  4981  0DCC                     u3330:
  4982  0DCC                     l2391:
  4983  0DCC  0879               	movf	___awmod@sign,w
  4984  0DCD  1903               	btfsc	3,2
  4985  0DCE  2DD0               	goto	u3341
  4986  0DCF  2DD1               	goto	u3340
  4987  0DD0                     u3341:
  4988  0DD0  2DD6               	goto	l2395
  4989  0DD1                     u3340:
  4990  0DD1                     l2393:
  4991  0DD1  09A6               	comf	___awmod@dividend,f
  4992  0DD2  09A7               	comf	___awmod@dividend+1,f
  4993  0DD3  0AA6               	incf	___awmod@dividend,f
  4994  0DD4  1903               	skipnz
  4995  0DD5  0AA7               	incf	___awmod@dividend+1,f
  4996  0DD6                     l2395:
  4997  0DD6  0827               	movf	___awmod@dividend+1,w
  4998  0DD7  00A5               	movwf	?___awmod+1
  4999  0DD8  0826               	movf	___awmod@dividend,w
  5000  0DD9  00A4               	movwf	?___awmod
  5001  0DDA                     l427:
  5002  0DDA  0008               	return
  5003  0DDB                     __end_of___awmod:
  5004                           
  5005                           	psect	text19
  5006  0DDB                     __ptext19:	
  5007 ;; *************** function ___awdiv *****************
  5008 ;; Defined at:
  5009 ;;		line 5 in file "C:\Program Files\Microchip\xc8\v2.31\pic\sources\c90\common\awdiv.c"
  5010 ;; Parameters:    Size  Location     Type
  5011 ;;  divisor         2    2[COMMON] int 
  5012 ;;  dividend        2    4[COMMON] int 
  5013 ;; Auto vars:     Size  Location     Type
  5014 ;;  quotient        2    2[BANK0 ] int 
  5015 ;;  sign            1    1[BANK0 ] unsigned char 
  5016 ;;  counter         1    0[BANK0 ] unsigned char 
  5017 ;; Return value:  Size  Location     Type
  5018 ;;                  2    2[COMMON] int 
  5019 ;; Registers used:
  5020 ;;		wreg, status,2, status,0
  5021 ;; Tracked objects:
  5022 ;;		On entry : 0/0
  5023 ;;		On exit  : 0/0
  5024 ;;		Unchanged: 0/0
  5025 ;; Data sizes:     COMMON   BANK0   BANK1   BANK3   BANK2
  5026 ;;      Params:         4       0       0       0       0
  5027 ;;      Locals:         0       4       0       0       0
  5028 ;;      Temps:          1       0       0       0       0
  5029 ;;      Totals:         5       4       0       0       0
  5030 ;;Total ram usage:        9 bytes
  5031 ;; Hardware stack levels used:    1
  5032 ;; Hardware stack levels required when called:    1
  5033 ;; This function calls:
  5034 ;;		Nothing
  5035 ;; This function is called by:
  5036 ;;		_main
  5037 ;; This function uses a non-reentrant model
  5038 ;;
  5039                           
  5040                           
  5041                           ;psect for function ___awdiv
  5042  0DDB                     ___awdiv:
  5043  0DDB                     l2317:	
  5044                           ;incstack = 0
  5045                           ; Regs used in ___awdiv: [wreg+status,2+status,0]
  5046                           
  5047  0DDB  1283               	bcf	3,5	;RP0=0, select bank0
  5048  0DDC  1303               	bcf	3,6	;RP1=0, select bank0
  5049  0DDD  01A1               	clrf	___awdiv@sign
  5050  0DDE                     l2319:
  5051  0DDE  1FF3               	btfss	___awdiv@divisor+1,7
  5052  0DDF  2DE1               	goto	u3161
  5053  0DE0  2DE2               	goto	u3160
  5054  0DE1                     u3161:
  5055  0DE1  2DE9               	goto	l2325
  5056  0DE2                     u3160:
  5057  0DE2                     l2321:
  5058  0DE2  09F2               	comf	___awdiv@divisor,f
  5059  0DE3  09F3               	comf	___awdiv@divisor+1,f
  5060  0DE4  0AF2               	incf	___awdiv@divisor,f
  5061  0DE5  1903               	skipnz
  5062  0DE6  0AF3               	incf	___awdiv@divisor+1,f
  5063  0DE7                     l2323:
  5064  0DE7  01A1               	clrf	___awdiv@sign
  5065  0DE8  0AA1               	incf	___awdiv@sign,f
  5066  0DE9                     l2325:
  5067  0DE9  1FF5               	btfss	___awdiv@dividend+1,7
  5068  0DEA  2DEC               	goto	u3171
  5069  0DEB  2DED               	goto	u3170
  5070  0DEC                     u3171:
  5071  0DEC  2DF6               	goto	l2331
  5072  0DED                     u3170:
  5073  0DED                     l2327:
  5074  0DED  09F4               	comf	___awdiv@dividend,f
  5075  0DEE  09F5               	comf	___awdiv@dividend+1,f
  5076  0DEF  0AF4               	incf	___awdiv@dividend,f
  5077  0DF0  1903               	skipnz
  5078  0DF1  0AF5               	incf	___awdiv@dividend+1,f
  5079  0DF2                     l2329:
  5080  0DF2  3001               	movlw	1
  5081  0DF3  00F6               	movwf	??___awdiv
  5082  0DF4  0876               	movf	??___awdiv,w
  5083  0DF5  06A1               	xorwf	___awdiv@sign,f
  5084  0DF6                     l2331:
  5085  0DF6  01A2               	clrf	___awdiv@quotient
  5086  0DF7  01A3               	clrf	___awdiv@quotient+1
  5087  0DF8                     l2333:
  5088  0DF8  0872               	movf	___awdiv@divisor,w
  5089  0DF9  0473               	iorwf	___awdiv@divisor+1,w
  5090  0DFA  1903               	btfsc	3,2
  5091  0DFB  2DFD               	goto	u3181
  5092  0DFC  2DFE               	goto	u3180
  5093  0DFD                     u3181:
  5094  0DFD  2E35               	goto	l2353
  5095  0DFE                     u3180:
  5096  0DFE                     l2335:
  5097  0DFE  01A0               	clrf	___awdiv@counter
  5098  0DFF  0AA0               	incf	___awdiv@counter,f
  5099  0E00  2E0C               	goto	l2341
  5100  0E01                     l2337:
  5101  0E01  3001               	movlw	1
  5102  0E02                     u3195:
  5103  0E02  1003               	clrc
  5104  0E03  0DF2               	rlf	___awdiv@divisor,f
  5105  0E04  0DF3               	rlf	___awdiv@divisor+1,f
  5106  0E05  3EFF               	addlw	-1
  5107  0E06  1D03               	skipz
  5108  0E07  2E02               	goto	u3195
  5109  0E08                     l2339:
  5110  0E08  3001               	movlw	1
  5111  0E09  00F6               	movwf	??___awdiv
  5112  0E0A  0876               	movf	??___awdiv,w
  5113  0E0B  07A0               	addwf	___awdiv@counter,f
  5114  0E0C                     l2341:
  5115  0E0C  1FF3               	btfss	___awdiv@divisor+1,7
  5116  0E0D  2E0F               	goto	u3201
  5117  0E0E  2E10               	goto	u3200
  5118  0E0F                     u3201:
  5119  0E0F  2E01               	goto	l2337
  5120  0E10                     u3200:
  5121  0E10                     l2343:
  5122  0E10  3001               	movlw	1
  5123  0E11                     u3215:
  5124  0E11  1003               	clrc
  5125  0E12  0DA2               	rlf	___awdiv@quotient,f
  5126  0E13  0DA3               	rlf	___awdiv@quotient+1,f
  5127  0E14  3EFF               	addlw	-1
  5128  0E15  1D03               	skipz
  5129  0E16  2E11               	goto	u3215
  5130  0E17  0873               	movf	___awdiv@divisor+1,w
  5131  0E18  0275               	subwf	___awdiv@dividend+1,w
  5132  0E19  1D03               	skipz
  5133  0E1A  2E1D               	goto	u3225
  5134  0E1B  0872               	movf	___awdiv@divisor,w
  5135  0E1C  0274               	subwf	___awdiv@dividend,w
  5136  0E1D                     u3225:
  5137  0E1D  1C03               	skipc
  5138  0E1E  2E20               	goto	u3221
  5139  0E1F  2E21               	goto	u3220
  5140  0E20                     u3221:
  5141  0E20  2E28               	goto	l2349
  5142  0E21                     u3220:
  5143  0E21                     l2345:
  5144  0E21  0872               	movf	___awdiv@divisor,w
  5145  0E22  02F4               	subwf	___awdiv@dividend,f
  5146  0E23  0873               	movf	___awdiv@divisor+1,w
  5147  0E24  1C03               	skipc
  5148  0E25  03F5               	decf	___awdiv@dividend+1,f
  5149  0E26  02F5               	subwf	___awdiv@dividend+1,f
  5150  0E27                     l2347:
  5151  0E27  1422               	bsf	___awdiv@quotient,0
  5152  0E28                     l2349:
  5153  0E28  3001               	movlw	1
  5154  0E29                     u3235:
  5155  0E29  1003               	clrc
  5156  0E2A  0CF3               	rrf	___awdiv@divisor+1,f
  5157  0E2B  0CF2               	rrf	___awdiv@divisor,f
  5158  0E2C  3EFF               	addlw	-1
  5159  0E2D  1D03               	skipz
  5160  0E2E  2E29               	goto	u3235
  5161  0E2F                     l2351:
  5162  0E2F  3001               	movlw	1
  5163  0E30  02A0               	subwf	___awdiv@counter,f
  5164  0E31  1D03               	btfss	3,2
  5165  0E32  2E34               	goto	u3241
  5166  0E33  2E35               	goto	u3240
  5167  0E34                     u3241:
  5168  0E34  2E10               	goto	l2343
  5169  0E35                     u3240:
  5170  0E35                     l2353:
  5171  0E35  0821               	movf	___awdiv@sign,w
  5172  0E36  1903               	btfsc	3,2
  5173  0E37  2E39               	goto	u3251
  5174  0E38  2E3A               	goto	u3250
  5175  0E39                     u3251:
  5176  0E39  2E3F               	goto	l2357
  5177  0E3A                     u3250:
  5178  0E3A                     l2355:
  5179  0E3A  09A2               	comf	___awdiv@quotient,f
  5180  0E3B  09A3               	comf	___awdiv@quotient+1,f
  5181  0E3C  0AA2               	incf	___awdiv@quotient,f
  5182  0E3D  1903               	skipnz
  5183  0E3E  0AA3               	incf	___awdiv@quotient+1,f
  5184  0E3F                     l2357:
  5185  0E3F  0823               	movf	___awdiv@quotient+1,w
  5186  0E40  00F3               	movwf	?___awdiv+1
  5187  0E41  0822               	movf	___awdiv@quotient,w
  5188  0E42  00F2               	movwf	?___awdiv
  5189  0E43                     l414:
  5190  0E43  0008               	return
  5191  0E44                     __end_of___awdiv:
  5192                           
  5193                           	psect	text20
  5194  0D01                     __ptext20:	
  5195 ;; *************** function _ISR *****************
  5196 ;; Defined at:
  5197 ;;		line 245 in file "main.c"
  5198 ;; Parameters:    Size  Location     Type
  5199 ;;		None
  5200 ;; Auto vars:     Size  Location     Type
  5201 ;;		None
  5202 ;; Return value:  Size  Location     Type
  5203 ;;                  1    wreg      void 
  5204 ;; Registers used:
  5205 ;;		wreg, status,2, status,0
  5206 ;; Tracked objects:
  5207 ;;		On entry : 0/0
  5208 ;;		On exit  : 0/0
  5209 ;;		Unchanged: 0/0
  5210 ;; Data sizes:     COMMON   BANK0   BANK1   BANK3   BANK2
  5211 ;;      Params:         0       0       0       0       0
  5212 ;;      Locals:         0       0       0       0       0
  5213 ;;      Temps:          2       0       0       0       0
  5214 ;;      Totals:         2       0       0       0       0
  5215 ;;Total ram usage:        2 bytes
  5216 ;; Hardware stack levels used:    1
  5217 ;; This function calls:
  5218 ;;		Nothing
  5219 ;; This function is called by:
  5220 ;;		Interrupt level 1
  5221 ;; This function uses a non-reentrant model
  5222 ;;
  5223                           
  5224                           
  5225                           ;psect for function _ISR
  5226  0D01                     _ISR:
  5227  0D01                     i1l2131:
  5228                           
  5229                           ;main.c: 247:     if(INTCON & 0x04)
  5230  0D01  1D0B               	btfss	11,2	;volatile
  5231  0D02  2D04               	goto	u273_21
  5232  0D03  2D05               	goto	u273_20
  5233  0D04                     u273_21:
  5234  0D04  2D25               	goto	i1l175
  5235  0D05                     u273_20:
  5236  0D05                     i1l2133:
  5237                           
  5238                           ;main.c: 248:     {;main.c: 249:         count++;
  5239  0D05  3001               	movlw	1
  5240  0D06  1683               	bsf	3,5	;RP0=1, select bank1
  5241  0D07  1303               	bcf	3,6	;RP1=0, select bank1
  5242  0D08  07C3               	addwf	_count^(0+128),f
  5243  0D09  1803               	skipnc
  5244  0D0A  0AC4               	incf	(_count+1)^(0+128),f
  5245  0D0B  3000               	movlw	0
  5246  0D0C  07C4               	addwf	(_count+1)^(0+128),f
  5247                           
  5248                           ;main.c: 250:         pwm++;
  5249  0D0D  3001               	movlw	1
  5250  0D0E  07C1               	addwf	_pwm^(0+128),f
  5251  0D0F  1803               	skipnc
  5252  0D10  0AC2               	incf	(_pwm+1)^(0+128),f
  5253  0D11  3000               	movlw	0
  5254  0D12  07C2               	addwf	(_pwm+1)^(0+128),f
  5255  0D13                     i1l2135:
  5256                           
  5257                           ;main.c: 251:         if(keyok)
  5258  0D13  1283               	bcf	3,5	;RP0=0, select bank0
  5259  0D14  1303               	bcf	3,6	;RP1=0, select bank0
  5260  0D15  086B               	movf	_keyok,w
  5261  0D16  1903               	btfsc	3,2
  5262  0D17  2D19               	goto	u274_21
  5263  0D18  2D1A               	goto	u274_20
  5264  0D19                     u274_21:
  5265  0D19  2D22               	goto	i1l2139
  5266  0D1A                     u274_20:
  5267  0D1A                     i1l2137:
  5268                           
  5269                           ;main.c: 252:         {;main.c: 253:             delayBtn++;
  5270  0D1A  3001               	movlw	1
  5271  0D1B  1683               	bsf	3,5	;RP0=1, select bank1
  5272  0D1C  1303               	bcf	3,6	;RP1=0, select bank1
  5273  0D1D  07BF               	addwf	_delayBtn^(0+128),f
  5274  0D1E  1803               	skipnc
  5275  0D1F  0AC0               	incf	(_delayBtn+1)^(0+128),f
  5276  0D20  3000               	movlw	0
  5277  0D21  07C0               	addwf	(_delayBtn+1)^(0+128),f
  5278  0D22                     i1l2139:
  5279                           
  5280                           ;main.c: 256:         INTCON = INTCON & ~0x04;
  5281  0D22  080B               	movf	11,w	;volatile
  5282  0D23  39FB               	andlw	251
  5283  0D24  008B               	movwf	11	;volatile
  5284  0D25                     i1l175:
  5285  0D25  0871               	movf	??_ISR+1,w
  5286  0D26  008A               	movwf	10
  5287  0D27  0E70               	swapf	??_ISR,w
  5288  0D28  0083               	movwf	3
  5289  0D29  0EFE               	swapf	btemp,f
  5290  0D2A  0E7E               	swapf	btemp,w
  5291  0D2B  0009               	retfie
  5292  0D2C                     __end_of_ISR:
  5293  007E                     btemp	set	126	;btemp
  5294  007E                     wtemp0	set	126
  5295                           
  5296                           	psect	intentry
  5297  0004                     __pintentry:	
  5298                           ;incstack = 0
  5299                           ; Regs used in _ISR: [wreg+status,2+status,0]
  5300                           
  5301  0004                     interrupt_function:
  5302  007E                     saved_w	set	btemp
  5303  0004  00FE               	movwf	btemp
  5304  0005  0E03               	swapf	3,w
  5305  0006  00F0               	movwf	??_ISR
  5306  0007  080A               	movf	10,w
  5307  0008  00F1               	movwf	??_ISR+1
  5308  0009  120A  158A  2D01   	ljmp	_ISR
  5309                           
  5310                           	psect	config
  5311                           
  5312                           ;Config register CONFIG @ 0x2007
  5313                           ;	Oscillator Selection bits
  5314                           ;	FOSC = HS, HS oscillator
  5315                           ;	Watchdog Timer Enable bit
  5316                           ;	WDTE = OFF, WDT disabled
  5317                           ;	Power-up Timer Enable bit
  5318                           ;	PWRTE = ON, PWRT enabled
  5319                           ;	Brown-out Reset Enable bit
  5320                           ;	BOREN = ON, BOR enabled
  5321                           ;	Low-Voltage (Single-Supply) In-Circuit Serial Programming Enable bit
  5322                           ;	LVP = ON, RB3/PGM pin has PGM function; low-voltage programming enabled
  5323                           ;	Data EEPROM Memory Code Protection bit
  5324                           ;	CPD = OFF, Data EEPROM code protection off
  5325                           ;	Flash Program Memory Write Enable bits
  5326                           ;	WRT = OFF, Write protection off; all program memory may be written to by EECON control
  5327                           ;	In-Circuit Debugger Mode bit
  5328                           ;	DEBUG = 0x1, unprogrammed default
  5329                           ;	Flash Program Memory Code Protection bit
  5330                           ;	CP = OFF, Code protection off
  5331  2007                     	org	8199
  5332  2007  3FF2               	dw	16370

Data Sizes:
    Strings     0
    Constant    7
    Data        26
    BSS         26
    Persistent  0
    Stack       0

Auto Spaces:
    Space          Size  Autos    Used
    COMMON           14     10      12
    BANK0            80     68      80
    BANK1            80      0      38
    BANK3            96      0       0
    BANK2            96      0       0

Pointer List with Targets:

    write_string@scritta	PTR unsigned char  size(1) Largest target is 12
		 -> main@setPointString(BANK0[12]), main@tempString(BANK0[7]), 


Critical Paths under _main in COMMON

    _main->___awmod
    _write_string->_sendData
    _write_char->_sendData
    _manageTemperature->___wmul
    _initDisplayLCD->_sendCommand
    _getRealTemperature->___fldiv
    _getRealTemperature->___xxtofl
    ___flmul->___xxtofl
    ___awmod->___awdiv

Critical Paths under _ISR in COMMON

    None.

Critical Paths under _main in BANK0

    _main->_getRealTemperature
    _getRealTemperature->___fltol
    ___fltol->___flmul
    ___flmul->___xxtofl
    ___awmod->___awdiv

Critical Paths under _ISR in BANK0

    None.

Critical Paths under _main in BANK1

    None.

Critical Paths under _ISR in BANK1

    None.

Critical Paths under _main in BANK3

    None.

Critical Paths under _ISR in BANK3

    None.

Critical Paths under _main in BANK2

    None.

Critical Paths under _ISR in BANK2

    None.

Call Graph Tables:

 ---------------------------------------------------------------------------------
 (Depth) Function   	        Calls       Base Space   Used Autos Params    Refs
 ---------------------------------------------------------------------------------
 (0) _main                                                23    23      0    9041
                                             45 BANK0     23    23      0
                            ___awdiv
                            ___awmod
                             ___wmul
                        _checkKeypad
                 _getRealTemperature
                     _initDisplayLCD
                            _initPic
                           _init_ADC
                  _manageTemperature
                        _sendCommand
                         _write_char
                       _write_string
 ---------------------------------------------------------------------------------
 (1) _write_string                                         4     4      0     178
                                              5 COMMON     4     4      0
                           _sendData
 ---------------------------------------------------------------------------------
 (1) _write_char                                           1     1      0      44
                                              5 COMMON     1     1      0
                           _sendData
 ---------------------------------------------------------------------------------
 (2) _sendData                                             3     3      0      22
                                              2 COMMON     3     3      0
 ---------------------------------------------------------------------------------
 (1) _manageTemperature                                    5     1      4     242
                                              8 COMMON     1     1      0
                                              0 BANK0      4     0      4
                             ___wmul (ARG)
 ---------------------------------------------------------------------------------
 (1) _init_ADC                                             1     1      0       0
                                              2 COMMON     1     1      0
 ---------------------------------------------------------------------------------
 (1) _initPic                                              0     0      0       0
 ---------------------------------------------------------------------------------
 (1) _initDisplayLCD                                       2     2      0      22
                                              5 COMMON     2     2      0
                        _sendCommand
 ---------------------------------------------------------------------------------
 (1) _sendCommand                                          3     3      0      22
                                              2 COMMON     3     3      0
 ---------------------------------------------------------------------------------
 (1) _getRealTemperature                                   2     0      2    5531
                                             43 BANK0      2     0      2
                            ___fldiv
                            ___flmul
                            ___fltol
                           ___xxtofl
                           _read_ADC
 ---------------------------------------------------------------------------------
 (2) _read_ADC                                             4     2      2      22
                                              2 COMMON     4     2      2
 ---------------------------------------------------------------------------------
 (2) ___xxtofl                                            14    10      4     398
                                              2 COMMON     8     4      4
                                              0 BANK0      6     6      0
 ---------------------------------------------------------------------------------
 (2) ___fltol                                             11     7      4     305
                                             32 BANK0     11     7      4
                            ___flmul (ARG)
 ---------------------------------------------------------------------------------
 (2) ___flmul                                             26    18      8    3533
                                              6 BANK0     26    18      8
                          __Umul8_16
                           ___xxtofl (ARG)
 ---------------------------------------------------------------------------------
 (3) __Umul8_16                                            9     7      2     980
                                              2 COMMON     4     2      2
                                              0 BANK0      5     5      0
 ---------------------------------------------------------------------------------
 (2) ___fldiv                                             26    18      8    1273
                                              2 COMMON     8     0      8
                                              0 BANK0     18    18      0
 ---------------------------------------------------------------------------------
 (2) _checkKeypad                                          2     2      0       0
                                              2 COMMON     2     2      0
 ---------------------------------------------------------------------------------
 (1) ___wmul                                               6     2      4     244
                                              2 COMMON     6     2      4
 ---------------------------------------------------------------------------------
 (1) ___awmod                                              7     3      4    1333
                                              7 COMMON     3     3      0
                                              4 BANK0      4     0      4
                            ___awdiv (ARG)
 ---------------------------------------------------------------------------------
 (1) ___awdiv                                              9     5      4    1345
                                              2 COMMON     5     1      4
                                              0 BANK0      4     4      0
 ---------------------------------------------------------------------------------
 Estimated maximum stack depth 3
 ---------------------------------------------------------------------------------
 (Depth) Function   	        Calls       Base Space   Used Autos Params    Refs
 ---------------------------------------------------------------------------------
 (4) _ISR                                                  2     2      0       0
                                              0 COMMON     2     2      0
 ---------------------------------------------------------------------------------
 Estimated maximum stack depth 4
 ---------------------------------------------------------------------------------

 Call Graph Graphs:

 _main (ROOT)
   ___awdiv
   ___awmod
     ___awdiv (ARG)
   ___wmul
   _checkKeypad
   _getRealTemperature
     ___fldiv
     ___flmul
       __Umul8_16
       ___xxtofl (ARG)
     ___fltol
       ___flmul (ARG)
         __Umul8_16
         ___xxtofl (ARG)
     ___xxtofl
     _read_ADC
   _initDisplayLCD
     _sendCommand
   _initPic
   _init_ADC
   _manageTemperature
     ___wmul (ARG)
   _sendCommand
   _write_char
     _sendData
   _write_string
     _sendData

 _ISR (ROOT)

 Address spaces:
Name               Size   Autos  Total    Cost      Usage
BANK3               60      0       0       9        0.0%
BITBANK3            60      0       0       8        0.0%
SFR3                 0      0       0       4        0.0%
BITSFR3              0      0       0       4        0.0%
BANK2               60      0       0      11        0.0%
BITBANK2            60      0       0      10        0.0%
SFR2                 0      0       0       5        0.0%
BITSFR2              0      0       0       5        0.0%
BANK1               50      0      26       7       47.5%
BITBANK1            50      0       0       6        0.0%
SFR1                 0      0       0       2        0.0%
BITSFR1              0      0       0       2        0.0%
BANK0               50     44      50       5      100.0%
BITBANK0            50      0       0       4        0.0%
SFR0                 0      0       0       1        0.0%
BITSFR0              0      0       0       1        0.0%
COMMON               E      A       C       1       85.7%
BITCOMMON            E      0       0       0        0.0%
CODE                 0      0       0       0        0.0%
DATA                 0      0      82      12        0.0%
ABS                  0      0      82       3        0.0%
NULL                 0      0       0       0        0.0%
STACK                0      0       0       2        0.0%
EEDATA             100      0       0       0        0.0%


Microchip Technology PIC Macro Assembler V2.31 build 20201012212115 
Symbol Table                                                                                   Fri Jan 15 10:05:05 2021

               ___fldiv@aexp 0031                 ___fldiv@bexp 0030                            pc 0002  
               ___fldiv@sign 0029                           _c1 006A                           _c2 0069  
                         _c3 0068                           _c4 00C5                 ___awdiv@sign 0021  
                         _t1 0067                           _t2 0066          ??_manageTemperature 0078  
                         fsr 0004          ___wmul@multiplicand 0074          __Umul8_16@word_mpld 0022  
                        l124 0C41                          l133 0EF1                          l134 0F41  
                        l150 0C62                          l119 0FFF                          l144 07FE  
                        l153 0BCD                          l138 0F55                          l162 0D7F  
                        l156 0BF6                          l261 0C6F                          l165 0CAF  
                        l414 0E43                          l263 0C87                          l159 0BE4  
                        l168 0CD7                          l610 03FD                          l427 0DDA  
                        l612 0583                          l700 0787                          l454 0EAA  
                        l447 0EBF                          l632 0567                          l457 0EBF  
                        l634 0577                          l626 04F5                          l650 03A0  
                        l707 07A3                          l708 07AF                          l662 0394  
                        l671 0D00                          l656 030C                          l669 0CEE  
                        l694 0742                          l696 07D9                          _ISR 0D01  
                        fsr0 0004                          _pwm 00C1                          indf 0000  
               ___awmod@sign 0079                 ___flmul@aexp 0034                 ___flmul@bexp 0039  
               ___flmul@sign 0033                 ___flmul@temp 003E                 ___flmul@prod 003A  
                       ?_ISR 0070                 ___fltol@exp1 004A                         l2201 00AD  
                       l2211 012F                         l2203 00BD                         l2221 019D  
                       l2213 014B                         l2205 00CA                         l2301 0FA4  
                       l1501 0CC9                         l2151 0CF7                         l2143 0CDB  
                       l2231 022D                         l2223 01AD                         l2215 0167  
                       l2207 00E7                         l1511 0E6F                         l1503 0E44  
                       l2303 0FC3                         l2311 0C26                         l2321 0DE2  
                       l1601 0456                         l2153 0CFC                         l2145 0CDD  
                       l2241 02C1                         l2233 023D                         l2225 01CA  
                       l2217 0170                         l2209 0103                         l2161 004D  
                       l1513 0E70                         l1505 0E51                         l2305 0FFB  
                       l2313 0C36                         l2401 0593                         l2331 0DF6  
                       l2323 0DE7                         l1611 0474                         l1603 0458  
                       l2147 0CE4                         l2251 02E6                         l2243 02CF  
                       l2235 026A                         l2227 01E3                         l2219 0180  
                       l2171 0064                         l2163 0051                         l1515 0E78  
                       l2315 0C3C                         l2411 05D2                         l2403 05A2  
                       l2341 0E0C                         l2333 0DF8                         l2325 0DE9  
                       l2317 0DDB                         l1605 045D                         l1613 047D  
                       l1621 04A8                         l1541 03A8                         l2149 0CE8  
                       l2261 0309                         l2245 02D8                         l2253 02EC  
                       l2237 0290                         l2229 0200                         l2181 007D  
                       l2173 0066                         l2165 0052                         l2157 0040  
                       l1533 0E9F                         l1525 0E86                         l1517 0E7A  
                       l1509 0E5A                         l2309 0C21                         l2421 0694  
                       l2413 05ED                         l2405 05A7                         l2351 0E2F  
                       l2343 0E10                         l2335 0DFE                         l2327 0DED  
                       l2319 0DDE                         l1631 04C5                         l1623 04AE  
                       l1615 048F                         l1607 046F                         l1551 03BD  
                       l1543 03AE                         l2271 0328                         l2255 02F0  
                       l2247 02DC                         l2239 02B8                         l2191 0092  
                       l2183 007E                         l2175 006E                         l2167 0057  
                       l2159 0047                         l1535 0EAF                         l1519 0E7E  
                       l1527 0E98                         l1471 0C8E                         l2431 06B6  
                       l2423 069C                         l2415 05F2                         l2407 05AB  
                       l2345 0E21                         l2337 0E01                         l2353 0E35  
                       l2329 0DF2                         l2361 0D80                         l1641 04DA  
                       l1633 04C6                         l1625 04B6                         l1617 0490  
                       l1609 0473                         l1561 03D5                         l1553 03C5  
                       l1545 03B2                         l2281 036E                         l2273 0341  
                       l2265 0311                         l2257 02F1                         l2249 02DD  
                       l2193 009A                         l2185 0083                         l2177 0073  
                       l2169 005C                         l1537 0EB4                         l1481 07DE  
                       l1473 0C90                         l2441 070B                         l2433 06CD  
                       l2425 06A4                         l2417 0677                         l2409 05B6  
                       l2355 0E3A                         l2347 0E27                         l2339 0E08  
                       l2371 0D92                         l2363 0D81                         l1651 04FF  
                       l1643 04DE                         l1635 04CF                         l1627 04B8  
                       l1619 04A4                         l1571 03EA                         l1563 03DB  
                       l1555 03C6                         l1547 03B3                         l1539 03A1  
                       l2291 038D                         l2283 0378                         l2267 0316  
                       l2275 0347                         l2259 02F5                         l2195 009F  
                       l2187 0088                         l2179 0079                         l1483 07E1  
                       l1475 0C9C                         l2443 0711                         l2435 06E1  
                       l2427 06AA                         l2419 068E                         l2357 0E3F  
                       l2349 0E28                         l2381 0DAB                         l2373 0D97  
                       l2365 0D87                         l1661 053D                         l1653 050D  
                       l1645 04F2                         l1629 04C1                         l1637 04D5  
                       l1581 0411                         l1573 03F2                         l1565 03DF  
                       l1549 03B8                         l1557 03C8                         l2293 0398  
                       l2285 037A                         l2277 0354                         l2269 0324  
                       l2197 00A4                         l2189 0090                         l1821 0721  
                       l1485 07EF                         l1477 0CA1                         l1469 0C89  
                       l1901 0D73                         l1493 0CB1                         l2445 0717  
                       l2437 06FB                         l2429 06B0                         l2383 0DAF  
                       l2375 0D9D                         l2391 0DCC                         l2367 0D8C  
                       l1671 056D                         l1663 054B                         l1655 0511  
                       l1639 04D9                         l1583 0415                         l1575 03F3  
                       l1567 03E0                         l1559 03D0                         l2287 0388  
                       l2279 035F                         l1823 0726                         l1487 07F2  
                       l1479 07DB                         l1903 0D79                         l1495 0CB6  
                       l2439 0703                         l2393 0DD1                         l2385 0DB9  
                       l2377 0DA0                         l2369 0D8E                         l1905 0EC0  
                       l1673 0571                         l1665 055A                         l1657 052A  
                       l1649 04FA                         l1593 042C                         l1569 03E5  
                       l1577 03F5                         l2289 038C                         l1841 0770  
                       l1833 0753                         l1825 072A                         l1489 07F8  
                       l2297 0F56                         l1497 0CB8                         l2395 0DD6  
                       l2387 0DBF                         l2379 0DA7                         l1931 0F00  
                       l1915 0ECC                         l1907 0EC3                         l1675 0573  
                       l1667 055E                         l1659 0530                         l1595 043E  
                       l1579 0405                         l1587 041E                         l1851 07A7  
                       l1843 077E                         l1835 0758                         l1827 073A  
                       l2299 0F62                         l1499 0CC4                         l2389 0DC6  
                       l1941 0F31                         l1933 0F0F                         l1925 0EDD  
                       l1917 0ED1                         l1909 0EC7                         l1669 0566  
                       l1597 0446                         l1589 0423                         l1861 07D1  
                       l1853 07B1                         l1845 078E                         l1837 0765  
                       l1829 074A                         l1951 0F45                         l1943 0F34  
                       l1935 0F1E                         l1927 0EEC                         l1919 0EDC  
                       l1599 044E                         l1855 07C7                         l1847 0799  
                       l1839 076C                         l1871 0BE0                         l2399 0584  
                       l1953 0F4B                         l1945 0F3A                         l1937 0F1F  
                       l1929 0EF3                         l1857 07CC                         l1849 079D  
                       l1881 0D2C                         l1865 0BD6                         l1873 0BE5  
                       l1955 0F4F                         l1939 0F2B                         l1859 07D0  
                       l1891 0D52                         l1883 0D2F                         l1867 0BDC  
                       l1875 0BEA                         l1949 0F41                         l1893 0D5B  
                       l1885 0D3D                         l1869 0BDE                         l1877 0BEE  
                       l1981 0C51                         l1991 0C69                         l1895 0D61  
                       l1887 0D43                         l1879 0BF2                         l1983 0C57  
                       l1993 0C76                         l1897 0D67                         l1889 0D4C  
                       l1985 0BC7                         l1977 0C43                         l1995 0C7D  
                       l1987 0C63                         l1899 0D6D                         l1979 0C46  
                       l1997 0C83                         l1989 0C65                         u2200 0726  
                       u3001 02AA                         u2201 0725                         u3002 02B1  
                       u2210 072A                         u3003 02B8                         u2211 0729  
                       u3100 0328                         u2300 07A7                         u2220 074A  
                       u1420 07F8                         u3101 0327                         u2301 07A6  
                       u2221 0749                         u1421 07F7                         u3110 0337  
                       u3030 02DC                         u1510 0EAF                         u1430 0E51  
                       u2310 07BC                         u3031 02DB                         u3015 02BA  
                       u1511 0EAE                         u1431 0E50                         u1415 07E4  
                       u3200 0E10                         u2400 0F3A                         u1600 0423  
                       u3120 0354                         u1520 0EB4                         u1440 0E68  
                       u2320 07CC                         u2240 076B                         u3201 0E0F  
                       u2401 0F39                         u1601 0422                         u3121 0353  
                       u3025 02D1                         u1521 0EB3                         u1505 0EA1  
                       u2321 07CB                         u2241 076A                         u2410 0F4B  
                       u1610 045D                         u1530 03B2                         u3130 036E  
                       u3050 02F0                         u1450 0E7E                         u2330 07D0  
                       u2411 0F4A                         u1611 045C                         u1531 03B1  
                       u3131 036D                         u3115 0332                         u3051 02EF  
                       u1451 0E7D                         u2331 07CF                         u2315 07B7  
                       u2235 075D                         u3220 0E21                         u3300 0DAF  
                       u2420 0F55                         u2340 0EEC                         u1540 03B8  
                       u3140 038C                         u3060 02F5                         u1460 0E85  
                       u2260 078D                         u3221 0E20                         u3301 0DAE  
                       u2421 0F54                         u2341 0EEB                         u1541 03B7  
                       u3141 038B                         u3125 0350                         u3061 02F4  
                       u3045 02DF                         u1461 0E84                         u1445 0E63  
                       u2261 078C                         u3310 0DB9                         u2350 0EF1  
                       u1710 04C5                         u1550 03BD                         u3070 0309  
                       u3150 0C36                         u3215 0E11                         u3311 0DB8  
                       u2351 0EF0                         u1711 04C4                         u1551 03BC  
                       u3135 036A                         u3071 0308                         u2255 077F  
                       u3151 0C35                         u3240 0E35                         u3160 0DE2  
                       u2360 0F00                         u1800 053D                         u1640 0473  
                       u1560 03DF                         u3080 0310                         u1480 0E97  
                       u2280 079D                         u2440 0C62                         u3241 0E34  
                       u3225 0E1D                         u3161 0DE1                         u2361 0EFF  
                       u1801 053C                         u1705 04BA                         u1641 0472  
                       u1625 045F                         u1561 03DE                         u3081 030F  
                       u1481 0E96                         u2281 079C                         u2441 0C61  
                       u3250 0E3A                         u3170 0DED                         u3330 0DCC  
                       u2450 0C69                         u2370 0F0F                         u1810 055A  
                       u1730 04D9                         u1570 03E5                         u3090 0316  
                       u1490 0E9E                         u2290 07A3                         u3251 0E39  
                       u3235 0E29                         u3171 0DEC                         u3331 0DCB  
                       u3315 0DB5                         u2451 0C68                         u2371 0F0E  
                       u1811 0559                         u1731 04D8                         u1635 0468  
                       u1571 03E4                         u3091 0315                         u1491 0E9D  
                       u1475 0E87                         u2291 07A2                         u2275 0792  
                       u3155 0C32                         u3180 0DFE                         u3340 0DD1  
                       u3260 0D87                         u1820 0571                         u1740 04DE  
                       u1660 048F                         u1580 03EA                         u3181 0DFD  
                       u3341 0DD0                         u3325 0DC0                         u3261 0D86  
                       u1821 0570                         u1805 0539                         u1741 04DD  
                       u1725 04C8                         u1661 048E                         u1581 03E9  
                       u3270 0D92                         u2390 0F2B                         u1750 04F2  
                       u1670 04A4                         u1590 0405                         u3350 05A2  
                       u3271 0D91                         u2391 0F2A                         u2375 0F0B  
                       u1815 0556                         u1751 04F1                         u1655 0476  
                       u1591 0404                         u3407 0CBF                         u3351 05A1  
                       u3280 0D9D                         u2480 0C83                         u1760 04F9  
                       u1680 04AE                         u2800 005C                         u3360 05ED  
                       u3281 0D9C                         u2481 0C82                         u2465 0C70  
                       u2385 0F12                         u1761 04F8                         u1681 04AD  
                       u1665 048B                         u2801 005B                         u3417 0CCD  
                       u3361 05EC                         u1770 04FF                         u1690 04B6  
                       u2810 007D                         u3370 05F2                         u3195 0E02  
                       u2475 0C77                         u1771 04FE                         u1691 04B5  
                       u1675 0497                         u2811 007C                         u3427 0BF4  
                       u3371 05F1                         u3355 059E                         u1780 0511  
                       u1676 0498                         u2820 0083                         u3380 0681  
                       u1781 0510                         u1677 049D                         u2821 0082  
                       u3437 0D33                         u3365 05E9                         u1790 0520  
                       u1678 049E                         u2750 0CE8                         u2830 0088  
                       u3390 06C0                         u3295 0DA1                         u1679 04A3  
                       u2751 0CE7                         u2911 018F                         u2831 0087  
                       u3447 0D47                         u2912 0196                         u2840 009F  
                       u2921 01BC                         u2913 019D                         u2905 0169  
                       u2841 009E                         u3457 0D56                         u2770 0CFC  
                       u2922 01C3                         u2850 00A4                         u1795 051B  
                       u2771 0CFB                         u2923 01CA                         u2851 00A3  
                       u3467 0C97                         u2780 0051                         u2765 0CEF  
                       u2941 01F2                         u2861 00F5                         u2781 0050  
                       u3477 0CA5                         u2942 01F9                         u2862 00FC  
                       u2790 0057                         u2951 021F                         u2943 0200  
                       u2935 01CC                         u2871 0111                         u2863 0103  
                       u2791 0056                         u2952 0226                         u2872 0118  
                       u2961 024C                         u2953 022D                         u2881 013D  
                       u2873 011F                         u2970 0276                         u2962 0253  
                       u2882 0144                         u2963 025A                         u2891 0159  
                       u2883 014B                         u2892 0160                         u2981 0282  
                       u2893 0167                         u2990 029E                         u2982 0289  
                       u2983 0290                         u2975 0271                         u2995 0299  
                       _TMR0 0001    __end_of_manageTemperature 0C42                         _main 0584  
                       _temp 00B7                         btemp 007E                         _volt 00BB  
                       start 000C              ___fldiv@new_exp 002A                        ??_ISR 0070  
              ___fltol@sign1 0049                        ?_main 0070              __end_of___fldiv 0584  
            __end_of___awdiv 0E44              __end_of___awmod 0DDB              __end_of___flmul 03A1  
            __end_of___fltol 0EC0              ___awdiv@divisor 0072                write_string@i 0076  
                      i1l175 0D25              ___awdiv@counter 0020                        _PORTA 0005  
                      _PORTB 0006                        _PORTC 0007                        _PORTD 0008  
                      _PORTE 0009                        _TRISA 0085                        _TRISB 0086  
                      _TRISC 0087                        _TRISD 0088                        _TRISE 0089  
       __size_of_checkKeypad 0096              __end_of_colMask 080D              __end_of_initPic 0BE5  
                      _count 00C3                        _keyok 006B                        _temp1 0064  
                      pclath 000A              __end_of_rowMask 080A                        status 0003  
                      wtemp0 007E   __end_of_getRealTemperature 1000              __initialization 000F  
               __end_of_main 071E                 ?_sendCommand 0070                       ??_main 004D  
      __size_of_write_string 0021                       _ADCON0 001F                       _ADCON1 009F  
                     _ADRESH 001E                       _ADRESL 009E             ___awdiv@dividend 0074  
                     i1l2131 0D01                       i1l2133 0D05                       i1l2135 0D13  
                     i1l2137 0D1A                       i1l2139 0D22   __size_of_manageTemperature 0021  
                     _INTCON 000B                       u273_20 0D05                       u273_21 0D04  
                     u274_20 0D1A                       u274_21 0D19             __end_of___xxtofl 07DA  
        manageTemperature@t1 0020          manageTemperature@t2 0022                 _write_string 0C42  
                     ___wmul 0C63                    ??___fldiv 0020                    ??___awdiv 0076  
                  ??___awmod 0077                       _change 006F                    ??___flmul 002E  
                  ??___fltol 0044      __size_of_initDisplayLCD 0054             __end_of_init_ADC 0BF7  
           __end_of_read_ADC 07FF             ___awdiv@quotient 0022              ___awmod@divisor 0024  
            ___awmod@counter 0078             __end_of_sendData 0CD8                    ??_initPic 0072  
         __size_of__Umul8_16 0029                       saved_w 007E                 ___xxtofl@arg 0022  
               ___xxtofl@exp 0021                 ___xxtofl@val 0072      __end_of__initialization 003C  
                 ___fltol@f1 0040               __pcstackCOMMON 0070                 __pidataBANK0 0BC3  
               __pidataBANK1 0C0A                   __pbssBANK0 0064                   __pbssBANK1 00B7  
          __end_of__Umul8_16 0D01                   __pmaintext 0584                      ?___wmul 0072  
                 __pintentry 0004         __size_of_sendCommand 0028                    ?___xxtofl 0072  
                 __stringtab 0800                    ?_init_ADC 0070                    ?_read_ADC 0072  
                  ?_sendData 0070               _initDisplayLCD 0D2C                      ___fldiv 03A1  
                    ___awdiv 0DDB                      ___awmod 0D80                      ___flmul 0040  
                    ___fltol 0E44              __size_of___wmul 0025           _getRealTemperature 0F56  
              ??_checkKeypad 0072                      _colMask 080A                      _colScan 007B  
                    __ptext1 0C42                      __ptext2 0BC6                      __ptext3 0CB0  
                    __ptext4 0C21                      __ptext5 0BE5                      __ptext6 0BD6  
                    __ptext7 0D2C                      __ptext8 0C88                      __ptext9 0F56  
               __size_of_ISR 002B                      _initPic 0BD6                      _val_ADC 00B3  
                 ??___xxtofl 0076             ___awmod@dividend 0026                      _old_val 00B5  
        ?_getRealTemperature 004B                   _keypressed 006C                      _rowMask 0806  
                    _rowScan 007A               main@tempString 005D                      clrloop0 0BCF  
       end_of_initialization 003C                   ??_init_ADC 0072                   ??_read_ADC 0074  
                 ??_sendData 0072         ??_getRealTemperature 007A       __end_of_initDisplayLCD 0D80  
              ___xxtofl@sign 0020          __end_of_checkKeypad 0F56                  ___fldiv@grs 002C  
                ___fldiv@rem 0025                  ___flmul@grs 0035              ?_initDisplayLCD 0070  
             __end_of___wmul 0C88                   _write_char 0BC6          start_initialization 000F  
                __end_of_ISR 0D2C                   read_ADC@ch 0075                     ??___wmul 0076  
                 init_fetch0 0BF7                    __Umul8_16 0CD8                  __pdataBANK0 006D  
                __pdataBANK1 00A0                  _checkKeypad 0EC0                    ___fldiv@a 0072  
                  ___fldiv@b 0076                    ___flmul@a 002A                    ___flmul@b 0026  
                __pbssCOMMON 007A                    ___latbits 0002                __pcstackBANK0 0020  
             sendCommand@cmd 0074            __size_of___xxtofl 00BC            __size_of_init_ADC 0012  
          __size_of_read_ADC 0025            __size_of_sendData 0028                     ?___fldiv 0072  
                   ?___awdiv 0072                     ?___awmod 0024                     ?___flmul 0026  
                   ?___fltol 0040                   ?__Umul8_16 0072                ??_sendCommand 0072  
                ?_write_char 0070                    __pstrings 0800                     ?_initPic 0070  
          interrupt_function 0004               ___wmul@product 0076                    clear_ram0 0BCE  
         main@setPointString 0051                ?_write_string 0070          _setpointTemperature 006D  
                __stringbase 0805            ___wmul@multiplier 0072                  write_char@c 0075  
        __end_of_sendCommand 0CB0             ??_initDisplayLCD 0075          __size_of_write_char 0008  
        write_string@scritta 0078  __size_of_getRealTemperature 00AA               ??_write_string 0075  
                ??__Umul8_16 0074             __size_of___fldiv 01E3             __size_of___awdiv 0069  
           __size_of___awmod 005B             __size_of___flmul 0361             __size_of___fltol 007C  
         __end_of__stringtab 0806                    sendData@d 0074                     ___xxtofl 071E  
           __size_of_initPic 000F                     _delayBtn 00BF                     __ptext10 07DA  
                   __ptext11 071E                     __ptext20 0D01                     __ptext12 0E44  
                   __ptext13 0040                     __ptext14 0CD8                     __ptext15 03A1  
                   __ptext16 0EC0                     __ptext17 0C63                     __ptext18 0D80  
                   __ptext19 0DDB                     _init_ADC 0BE5                     _read_ADC 07DA  
              __size_of_main 019A                     _sendData 0CB0                     main@F892 00AC  
                   main@F894 00A0                  _sendCommand 0C88                 ?_checkKeypad 0070  
                   init_ram0 0BFB                     intlevel1 0000                    stringcode 0800  
               ??_write_char 0075       __Umul8_16@multiplicand 0072                   _OPTION_REG 0081  
                   stringdir 0800                     stringtab 0800         __end_of_write_string 0C63  
       __Umul8_16@multiplier 0024           __end_of_write_char 0BCE            _manageTemperature 0C21  
         ?_manageTemperature 0020            __Umul8_16@product 0020  
